(dp0
S'glyphs'
p1
(dp2
V!
p3
((dp4
I0
(F63.0000000001
F-6.200000000010001e-09
tp5
sI1
(F63.000000037333066
F123.9999999876001
tp6
sI2
(F63.0000002253
F749.9999999814
tp7
sI3
(F83.0000000402
F199.9999999836
tp8
sI4
(F167.0000000201
F199.9999999834
tp9
sI5
(F187.0
F0.0
tp10
sI6
(F187.0
F750.0
tp11
sI7
(F187.0000000375
F123.9999999442
tp12
s(lp13
(I4
I3
I2
tp14
a(I5
I1
I7
tp15
a(I0
I1
I5
tp16
a(I2
I4
I6
tp17
a(dp18
S'h'
p19
F750.0
sS'advance_width'
p20
F250.0
sS'left_side_bearing'
p21
F63.0
sS'w'
p22
F124.0
sS'by'
p23
F0.0
sS'lx'
p24
F63.0
stp25
sV"
p26
((dp27
I0
(F36.0000002253
F749.9999999895
tp28
sI1
(F56.0000000902
F449.999999989
tp29
sI2
(F140.00000004510002
F449.99999997632904
tp30
sI3
(F160.0
F749.9999999523
tp31
sI4
(F236.0000002253
F749.999999970426
tp32
sI6
(F340.0000000451
F449.9999999661
tp33
sI7
(F360.0
F750.0
tp34
sI9
(F256.0000000895446
F449.99999995883104
tp35
s(lp36
(I1
I3
I2
tp37
a(I0
I3
I1
tp38
a(I7
I4
I6
tp39
a(I9
I6
I4
tp40
a(dp41
g19
F300.0
sg20
F396.0
sg21
F36.0
sg22
F324.0
sg23
F450.0
sg24
F36.0
stp42
sV'
p43
((dp44
I0
(F36.0000002253
F749.9999999895
tp45
sI1
(F56.0000000902
F449.999999989
tp46
sI2
(F140.0000000451
F449.9999999861
tp47
sI3
(F160.0
F750.0
tp48
s(lp49
(I0
I3
I2
tp50
a(I0
I2
I1
tp51
a(dp52
g19
F300.0
sg20
F196.0
sg21
F36.0
sg22
F124.0
sg23
F450.0
sg24
F36.0
stp53
sV+
p54
((dp55
I0
(F44.0000001155
F229.9999999785
tp56
sI1
(F44.000000195
F323.9999999742
tp57
sI2
(F182.0000000309
F101.9999999457
tp58
sI3
(F182.0000000924
F229.99999998651896
tp59
sI4
(F182.0000002275
F323.9999998733
tp60
sI5
(F182.0000003624
F451.9999998552
tp61
sI6
(F276.0000000206
F101.999999945
tp62
sI7
(F276.00000002310003
F229.9999999919811
tp63
sI8
(F276.000000325
F323.999999725
tp64
sI9
(F276.0000004077
F451.9999997525
tp65
sI10
(F414.0
F230.0
tp66
sI11
(F414.0000003575
F323.9999995457
tp67
s(lp68
(I4
I5
I9
tp69
a(I3
I1
I4
tp70
a(I3
I4
I7
tp71
a(I4
I8
I7
tp72
a(I8
I11
I10
tp73
a(I8
I10
I7
tp74
a(I0
I1
I3
tp75
a(I2
I3
I6
tp76
a(I9
I4
I8
tp77
a(I6
I7
I3
tp78
a(dp79
g19
F350.0
sg20
F458.0
sg21
F44.0
sg22
F370.0
sg23
F102.0
sg24
F44.0
stp80
sV*
p81
((dp82
I0
(F31.000000309
F616.999999985
tp83
sI1
(F72.0000001425
F473.9999999787
tp84
sI2
(F78.00000042
F698.9999999538
tp85
sI3
(F139.000000082
F408.9999999724
tp86
sI4
(F176.0000006
F748.99999986
tp87
sI5
(F193.0000002264
F564.9999999232
tp88
sI6
(F211.0000004151
F591.999999853
tp89
sI7
(F225.000000055
F548.9999999776
tp90
sI8
(F234.000000593
F591.999999767
tp91
sI9
(F256.0000007384
F566.9999996685
tp92
sI10
(F270.000000675
F748.9999997579
tp93
sI11
(F309.0
F412.0
tp94
sI12
(F368.00000077
F698.9999995963
tp95
sI13
(F376.0000006692
F476.999999475
tp96
sI14
(F415.0000007416
F616.9999995032
tp97
s(lp98
(I8
I4
I10
tp99
a(I14
I9
I12
tp100
a(I6
I4
I8
tp101
a(I5
I2
I6
tp102
a(I7
I6
I8
tp103
a(I0
I2
I5
tp104
a(I1
I5
I3
tp105
a(I11
I7
I9
tp106
a(I5
I7
I3
tp107
a(I8
I7
I9
tp108
a(I12
I8
I9
tp109
a(I6
I5
I7
tp110
a(I13
I9
I11
tp111
a(dp112
g19
F340.0
sg20
F446.0
sg21
F31.0
sg22
F384.0
sg23
F409.0
sg24
F31.0
stp113
sV-
p114
((dp115
I0
(F54.0000000231
F229.9999999947
tp116
sI1
(F54.000000065
F323.9999999894
tp117
sI2
(F364.0
F230.0
tp118
sI3
(F364.0000000975
F323.9999998911
tp119
s(lp120
(I2
I1
I3
tp121
a(I0
I1
I2
tp122
a(dp123
g19
F94.0
sg20
F418.0
sg21
F54.0
sg22
F310.0
sg23
F230.0
sg24
F54.0
stp124
sV,
p125
((dp126
I0
(F53.999999981
F-96.0000000106
tp127
sI1
(F54.00000001689381
F-2.120001596495058e-08
tp128
sI2
(F54.0000000655
F129.9999999735
tp129
sI3
(F79.9999999891
F-110.0000000079
tp130
sI4
(F86.9999999973
F-10.0000000258
tp131
sI5
(F178.0
F0.0
tp132
sI6
(F178.0000000786
F129.9999998938
tp133
s(lp134
(I4
I1
I2
tp135
a(I5
I4
I6
tp136
a(I3
I4
I5
tp137
a(I0
I4
I3
tp138
a(I2
I4
I6
tp139
a(dp140
g19
F240.0
sg20
F232.0
sg21
F54.0
sg22
F124.0
sg23
F-110.0
sg24
F54.0
stp141
sV.
p142
((dp143
I0
(F54.0000000001
F-5.30000000001e-09
tp144
sI1
(F54.0000000262
F129.9999999894
tp145
sI2
(F178.0
F0.0
tp146
sI3
(F178.0000000393
F129.9999999469
tp147
s(lp148
(I2
I1
I3
tp149
a(I0
I1
I2
tp150
a(dp151
g19
F130.0
sg20
F232.0
sg21
F54.0
sg22
F124.0
sg23
F0.0
sg24
F54.0
stp152
sV1
p153
((dp154
I0
(F45.000000296
F590.999999978
tp155
sI1
(F56.0000001936
F482.999999978
tp156
sI2
(F80.000000363375
F604.6249999526
tp157
sI3
(F101.0000001491
F495.99999997
tp158
sI4
(F119.00000044275
F631.4999999174
tp159
sI5
(F144.0000000001
F-1.430000000001e-08
tp160
sI6
(F144.000000104
F518.9999999714
tp161
sI7
(F153.2500005331
F665.3749998782
tp162
sI8
(F174.0000006309
F699.9999998443
tp163
sI9
(F272.0
F0.0
tp164
sI10
(F272.000000701
F699.999999729
tp165
s(lp166
(I6
I4
I7
tp167
a(I3
I2
I6
tp168
a(I0
I2
I3
tp169
a(I0
I3
I1
tp170
a(I7
I6
I10
tp171
a(I8
I7
I10
tp172
a(I4
I2
I6
tp173
a(I6
I5
I9
tp174
a(I10
I6
I9
tp175
a(dp176
g19
F700.0
sg20
F369.0
sg21
F45.0
sg22
F227.0
sg23
F0.0
sg24
F45.0
stp177
sV0
p178
((dp179
I0
(F59.000000272
F338.9999999536
tp180
sI1
(F63.9375001850625
F263.37499995594374
tp181
sI2
(F64.375000376875
F417.7499999429625
tp182
sI3
(F78.7500001179
F195.49999995335
tp183
sI4
(F80.50000049
F488.9999999205
tp184
sI5
(F103.4375000681875
F135.37499994878124
tp185
sI6
(F107.375000609125
F552.7499998829875
tp186
sI7
(F138.0000000336
F82.9999999452
tp187
sI8
(F145.000000732
F608.9999998272
tp188
sI9
(F180.68750001246875
F40.56249994609375
tp189
sI10
(F187.000000272
F338.9999998512
tp190
sI11
(F189.78125025543125
F282.8124998300969
tp191
sI12
(F190.1250002795625
F398.3749998676125
tp192
sI13
(F190.62500085271876
F654.9374997534875
tp193
sI14
(F198.12500023525
F234.249999802875
tp194
sI15
(F199.5000002709
F450.4999998809
tp195
sI16
(F212.03125021374376
F193.31249976786563
tp196
sI17
(F215.1250002481875
F495.3749998929375
tp197
sI18
(F229.75000000225
F10.24999995425
tp198
sI19
(F231.5000001932
F159.9999997234
tp199
sI20
(F237.0000002136
F532.9999999056
tp200
sI21
(F241.50000096425
F687.7499996633
tp201
sI22
(F255.53125017574374
F134.18749966910937
tp202
sI23
(F263.250000169125
F562.749999921325
tp203
sI24
(F283.12500016345
F115.749999605025
tp204
sI25
(F285.1874999993062
F-7.93750002841875
tp205
sI26
(F292.000000117
F583.9999999418
tp206
sI27
(F297.6250010626562
F707.4374995550625
tp207
sI28
(F314.28125015853124
F104.68749953007813
tp208
sI29
(F323.250000059775
F596.749999967775
tp209
sI30
(F347.0
F-14.0
tp210
sI31
(F349.0000001632
F100.9999994432
tp211
sI32
(F357.0
F601.0
tp212
sI33
(F359.000001144
F713.9999994272
tp213
sI34
(F386.0625001800406
F104.90624934539375
tp214
sI35
(F390.1562518538969
F597.0312487936156
tp215
sI36
(F411.6249999793656
F-7.6562512729375
tp216
sI37
(F418.7812512048219
F707.7187492897718
tp217
sI38
(F419.250000211725
F116.62499924715
tp218
sI39
(F420.625001758375
F585.124998741125
tp219
sI40
(F448.40625164221564
F565.2812487025219
tp220
sI41
(F448.5625002605969
F136.15624914963124
tp221
sI42
(F469.500000037125
F11.3749985945
tp222
sI43
(F473.125001241775
F688.874999150175
tp223
sI44
(F473.5000015078
F537.499998677
tp224
sI45
(F474.000000329
F163.499999054
tp225
sI46
(F494.28125135902815
F502.3437486681406
tp226
sI47
(F494.5625004199344
F198.96874896351875
tp227
sI48
(F509.125001199575
F460.374998678875
tp228
sI49
(F509.250000536525
F242.87499888185
tp229
sI50
(F518.0312510314844
F411.59374870742187
tp230
sI51
(F518.0625006813032
F295.21874881075627
tp231
sI52
(F520.6250001278719
F43.0937484930875
tp232
sI53
(F521.0000008568
F355.999998752
tp233
sI54
(F522.0312512510907
F657.4687490100406
tp234
sI55
(F565.0000002478
F87.4999984208
tp235
sI56
(F565.500001229
F613.499998871
tp236
sI57
(F600.8750003870281
F142.3437483803375
tp237
sI58
(F601.1562511775094
F559.7187487396719
tp238
sI59
(F626.500000536575
F205.3749983737
tp239
sI60
(F626.625001099725
F498.874998623625
tp240
sI61
(F641.8750006939844
F276.5937483978125
tp241
sI62
(F641.9062509935281
F430.9687485259156
tp242
sI63
(F647.0000008568
F355.9999984496
tp243
s(lp244
(I12
I2
I15
tp245
a(I8
I20
I6
tp246
a(I13
I21
I26
tp247
a(I21
I27
I29
tp248
a(I21
I29
I26
tp249
a(I13
I23
I8
tp250
a(I23
I20
I8
tp251
a(I20
I17
I6
tp252
a(I17
I4
I6
tp253
a(I29
I27
I32
tp254
a(I15
I4
I17
tp255
a(I35
I33
I37
tp256
a(I2
I4
I15
tp257
a(I39
I37
I54
tp258
a(I44
I40
I56
tp259
a(I0
I2
I12
tp260
a(I48
I46
I60
tp261
a(I63
I50
I62
tp262
a(I51
I53
I63
tp263
a(I0
I12
I10
tp264
a(I49
I51
I61
tp265
a(I47
I49
I59
tp266
a(I45
I47
I57
tp267
a(I0
I10
I11
tp268
a(I42
I38
I52
tp269
a(I1
I11
I14
tp270
a(I3
I14
I16
tp271
a(I5
I16
I19
tp272
a(I7
I19
I22
tp273
a(I25
I18
I24
tp274
a(I18
I22
I24
tp275
a(I9
I7
I18
tp276
a(I7
I22
I18
tp277
a(I5
I19
I7
tp278
a(I3
I16
I5
tp279
a(I1
I14
I3
tp280
a(I0
I11
I1
tp281
a(I13
I23
I26
tp282
a(I33
I27
I32
tp283
a(I35
I33
I32
tp284
a(I37
I35
I39
tp285
a(I43
I37
I54
tp286
a(I54
I39
I40
tp287
a(I54
I40
I56
tp288
a(I44
I46
I58
tp289
a(I56
I44
I58
tp290
a(I58
I46
I60
tp291
a(I62
I48
I50
tp292
a(I60
I48
I62
tp293
a(I50
I53
I63
tp294
a(I63
I51
I61
tp295
a(I61
I49
I59
tp296
a(I59
I47
I57
tp297
a(I45
I41
I55
tp298
a(I57
I45
I55
tp299
a(I52
I41
I38
tp300
a(I55
I41
I52
tp301
a(I38
I36
I42
tp302
a(I38
I34
I36
tp303
a(I30
I31
I28
tp304
a(I31
I30
I34
tp305
a(I34
I30
I36
tp306
a(I28
I24
I25
tp307
a(I28
I25
I30
tp308
a(dp309
g19
F728.0
sg20
F706.0
sg21
F59.0
sg22
F588.0
sg23
F-14.0
sg24
F59.0
stp310
sV3
p311
((dp312
I0
(F36.0000000164
F39.999999986
tp313
sI1
(F60.125000007275
F23.2499999822625
tp314
sI2
(F67.0000000795
F157.999999967
tp315
sI3
(F80.0000023415
F667.9999997235
tp316
sI4
(F94.37500008385
F138.749999943975
tp317
sI5
(F100.0000019482
F571.9999996634
tp318
sI6
(F104.3750024696
F684.99999962785
tp319
sI7
(F106.5000000012
F4.9999999789
tp320
sI8
(F121.9375019399875
F586.8749996009062
tp321
sI9
(F132.5000000868
F122.99999990795
tp322
sI10
(F136.000000664
F330.99999973
tp323
sI11
(F141.5000025937
F699.99999948015
tp324
sI12
(F147.0000009051
F429.9999996934
tp325
sI13
(F149.7500019152
F597.499999524
tp326
sI14
(F164.624999999175
F-9.2500000163625
tp327
sI15
(F175.8750000908
F112.4999998601
tp328
sI16
(F183.4375018751125
F603.8749994344438
tp329
sI17
(F187.3750027037
F710.499999291775
tp330
sI18
(F193.0000009482
F429.9999995776
tp331
sI19
(F219.000000099
F108.9999998038
tp332
sI20
(F223.000001821
F605.999999334
tp333
sI21
(F224.0
F-14.0
tp334
sI22
(F226.0000006308
F330.9999995725
tp335
sI23
(F238.0000027885
F713.9999990757
tp336
sI24
(F251.187501004525
F435.7499994245687
tp337
sI25
(F259.65625059394375
F328.96874953441875
tp338
sI26
(F268.062501745075
F600.7499992255188
tp339
sI27
(F274.6562499437656
F-10.218751669303124
tp340
sI28
(F278.062500116375
F115.3749997229375
tp341
sI29
(F287.6250005505875
F322.8749995127375
tp342
sI30
(F292.7500010896
F452.9999992998
tp343
sI31
(F297.375002842
F709.4999988145
tp344
sI32
(F300.2500016408
F584.9999991621
tp345
sI33
(F309.90625050195
F312.71874950575
tp346
sI34
(F317.687501206875
F481.7499992082812
tp347
sI35
(F319.562501511325
F558.7499991398812
tp348
sI36
(F320.25000014905
F134.499999648825
tp349
sI37
(F321.62500001275
F1.12499807625
tp350
sI38
(F326.0000013598
F521.999999155
tp351
sI39
(F326.50000044925
F298.49999951175
tp352
sI40
(F345.56250020085
F166.374999586525
tp353
sI41
(F347.125000365925
F260.374999515425
tp354
sI42
(F347.5000028577
F695.99999857935
tp355
sI43
(F354.0000002756
F210.9999995411
tp356
sI44
(F364.90625012408435
F20.031247852953125
tp357
sI45
(F387.125002839725
F675.124998378275
tp358
sI46
(F388.000001945
F387.999998065
tp359
sI47
(F404.5000002755
F46.4999976597
tp360
sI48
(F415.00000279285
F648.4999982198
tp361
sI49
(F417.3125020390125
F415.12499796006875
tp362
sI50
(F428.25000182420627
F356.687497821025
tp363
sI51
(F433.750002728
F618.9999980959
tp364
sI52
(F437.53125046080936
F79.84374751177187
tp365
sI53
(F438.2500021528
F447.4999979012
tp366
sI54
(F446.00000265725
F589.4999979975
tp367
sI55
(F450.8125022847875
F485.1249978858812
tp368
sI56
(F455.0000024334
F527.9999979116
tp369
sI57
(F457.0000016575
F317.7499976288
tp370
sI58
(F461.1250006741
F119.3749974233
tp371
sI59
(F474.25000144259377
F271.187497491775
tp372
sI60
(F475.28125091351563
F165.09374739145312
tp373
sI61
(F480.0000011772
F216.9999974134
tp374
s(lp375
(I13
I3
I11
tp376
a(I13
I8
I3
tp377
a(I16
I13
I11
tp378
a(I18
I10
I12
tp379
a(I24
I22
I18
tp380
a(I32
I26
I42
tp381
a(I38
I35
I54
tp382
a(I0
I2
I4
tp383
a(I25
I22
I24
tp384
a(I22
I10
I18
tp385
a(I46
I30
I34
tp386
a(I25
I24
I29
tp387
a(I56
I55
I54
tp388
a(I29
I24
I30
tp389
a(I46
I29
I30
tp390
a(I46
I55
I49
tp391
a(I39
I33
I46
tp392
a(I0
I4
I9
tp393
a(I59
I41
I50
tp394
a(I60
I43
I59
tp395
a(I7
I9
I15
tp396
a(I36
I40
I52
tp397
a(I14
I15
I19
tp398
a(I14
I19
I27
tp399
a(I44
I28
I36
tp400
a(I52
I40
I60
tp401
a(I47
I44
I52
tp402
a(I44
I36
I52
tp403
a(I27
I28
I44
tp404
a(I27
I44
I37
tp405
a(I19
I28
I27
tp406
a(I14
I27
I21
tp407
a(I7
I15
I14
tp408
a(I0
I9
I7
tp409
a(I0
I7
I1
tp410
a(I3
I5
I8
tp411
a(I6
I3
I11
tp412
a(I11
I23
I17
tp413
a(I16
I20
I23
tp414
a(I11
I16
I23
tp415
a(I23
I26
I42
tp416
a(I23
I20
I26
tp417
a(I31
I23
I42
tp418
a(I42
I32
I48
tp419
a(I42
I48
I45
tp420
a(I54
I51
I48
tp421
a(I32
I35
I48
tp422
a(I35
I54
I48
tp423
a(I38
I55
I54
tp424
a(I34
I55
I38
tp425
a(I34
I46
I55
tp426
a(I29
I33
I46
tp427
a(I53
I55
I49
tp428
a(I39
I41
I50
tp429
a(I46
I39
I50
tp430
a(I50
I59
I57
tp431
a(I41
I43
I59
tp432
a(I59
I60
I61
tp433
a(I52
I58
I60
tp434
a(I43
I40
I60
tp435
a(dp436
g19
F728.0
sg20
F539.0
sg21
F36.0
sg22
F444.0
sg23
F-14.0
sg24
F36.0
stp437
sV2
p438
((dp439
I0
(F44.0000000001
F-4.30000000001e-09
tp440
sI1
(F52.000001232
F614.9999998979999
tp441
sI2
(F68.0000009519
F499.9999998727
tp442
sI3
(F79.625001365525
F649.2499998348875
tp443
sI4
(F101.46875001698125
F83.90624997990625
tp444
sI5
(F104.3125009860625
F546.8124998140376
tp445
sI6
(F124.5000015026
F681.9999997282999
tp446
sI7
(F143.250000988125
F580.249999758175
tp447
sI8
(F151.8750000481875
F159.6249999547375
tp448
sI9
(F183.8750016261
F705.9999995793875
tp449
sI10
(F184.8125009621
F600.3124997059
tp450
sI11
(F195.2187500912625
F227.1562499223125
tp451
sI12
(F229.000000912
F606.999999658
tp452
sI13
(F231.50000014375
F286.49999988475
tp453
sI14
(F255.000001716
F713.9999993904
tp454
sI15
(F261.0625002029875
F337.3124998439625
tp455
sI16
(F264.00000045
F123.9999990532
tp456
sI17
(F269.875000841925
F600.374999623575
tp457
sI18
(F284.250000266175
F379.249999801725
tp458
sI19
(F300.50000075595
F580.49999961065
tp459
sI20
(F301.06250033065
F412.31249975995
tp460
sI21
(F301.6250017786719
F710.4687492484375
tp461
sI22
(F309.5312506844688
F194.56249892014063
tp462
sI23
(F311.50000039375
F436.49999972055
tp463
sI24
(F319.62500065985
F548.87499961765
tp464
sI25
(F322.375000474875
F473.874999678625
tp465
sI26
(F326.0000005588
F506.9999996425
tp466
sI27
(F341.500001822275
F699.8749991147
tp467
sI28
(F348.12500088145
F258.249998819775
tp468
sI29
(F374.62500184469064
F682.2187489912125
tp469
sI30
(F379.78125104300625
F315.06249875002186
tp470
sI31
(F401.0000018438
F657.49999888
tp471
sI32
(F404.5000011712
F364.9999987088
tp472
sI33
(F435.5000017323875
F596.37499873995
tp473
sI34
(F436.375001403525
F451.7499986503375
tp474
sI35
(F447.000001581
F525.9999986619999
tp475
sI36
(F472.0
F0.0
tp476
sI37
(F472.0000004625
F123.99999825729999
tp477
s(lp478
(I5
I2
I1
tp479
a(I7
I5
I1
tp480
a(I10
I7
I6
tp481
a(I12
I10
I9
tp482
a(I17
I12
I14
tp483
a(I19
I17
I27
tp484
a(I31
I19
I27
tp485
a(I33
I24
I31
tp486
a(I28
I13
I15
tp487
a(I16
I4
I8
tp488
a(I18
I30
I15
tp489
a(I30
I28
I15
tp490
a(I28
I22
I13
tp491
a(I22
I16
I11
tp492
a(I16
I8
I11
tp493
a(I0
I4
I16
tp494
a(I36
I16
I37
tp495
a(I0
I16
I36
tp496
a(I1
I7
I3
tp497
a(I3
I7
I6
tp498
a(I6
I10
I9
tp499
a(I9
I12
I14
tp500
a(I14
I27
I21
tp501
a(I14
I17
I27
tp502
a(I27
I31
I29
tp503
a(I19
I24
I31
tp504
a(I24
I26
I35
tp505
a(I26
I25
I34
tp506
a(I34
I35
I26
tp507
a(I18
I32
I20
tp508
a(I20
I32
I23
tp509
a(I23
I34
I25
tp510
a(I24
I35
I33
tp511
a(I13
I11
I22
tp512
a(I32
I18
I30
tp513
a(I32
I34
I23
tp514
a(dp515
g19
F714.0
sg20
F529.0
sg21
F44.0
sg22
F428.0
sg23
F0.0
sg24
F44.0
stp516
sV5
p517
((dp518
I0
(F49.0000000264
F42.9999999712
tp519
sI1
(F54.031250018078126
F35.15624997348438
tp520
sI2
(F66.12500001105
F26.62499997395
tp521
sI3
(F79.000000112
F158.9999999454
tp522
sI4
(F85.0000007992
F331.9999997984
tp523
sI5
(F85.28125000552187
F17.406249974715625
tp524
sI6
(F110.4375001098
F136.24999991245
tp525
sI7
(F111.5000000017
F7.4999999779
tp526
sI8
(F129.0000017525
F699.99999968
tp527
sI9
(F145.7500001089
F119.999999869725
tp528
sI10
(F171.3749999993125
F-7.8750000170375
tp529
sI11
(F184.93750011125
F110.2499998160625
tp530
sI12
(F192.0000007659
F331.9999995607
tp531
sI13
(F208.000001276
F438.9999993997
tp532
sI14
(F225.0000016156
F575.9999993728
tp533
sI15
(F228.0000001188
F106.9999997503
tp534
sI16
(F232.0
F-13.0
tp535
sI17
(F237.56250072875
F330.2499994795625
tp536
sI18
(F275.2500006846
F324.999999424075
tp537
sI19
(F276.0312513080938
F435.03124917490624
tp538
sI20
(F281.12500013815
F114.12499966385
tp539
sI21
(F282.6249999648
F-9.00000123915
tp540
sI22
(F305.0625006345
F316.249999391875
tp541
sI23
(F324.50000017745
F135.49999957945
tp542
sI24
(F327.0000005795
F303.9999993806
tp543
sI25
(F329.5000000172
F2.99999858745
tp544
sI26
(F334.1250013209875
F425.1249989673125
tp545
sI27
(F341.34375021398125
F151.84374952351874
tp546
sI28
(F353.3750002600625
F172.3749994714375
tp547
sI29
(F354.0000004887
F270.4999993646
tp548
sI30
(F360.59375031695
F197.09374942465
tp549
sI31
(F363.0000003859
F225.9999993846
tp550
sI32
(F372.6250001008
F22.999998439175
tp551
sI33
(F382.2812513129
F409.2812487799
tp552
sI34
(F412.0000002132
F50.9999983149
tp553
sI35
(F420.50000128205
F387.49999861565
tp554
sI36
(F437.0000015579
F575.9999988228
tp555
sI37
(F444.812500349
F86.24999822475
tp556
sI38
(F449.5937512245313
F359.15624847478125
tp557
sI39
(F450.0000018226
F699.9999988326
tp558
sI40
(F468.2500005031
F127.999998177725
tp559
sI41
(F470.3750011361875
F323.6249983571875
tp560
sI42
(F482.31250067355
F176.2499981710125
tp561
sI43
(F482.8437510148625
F280.9062482653625
tp562
sI44
(F487.0000008584
F230.9999982018
tp563
s(lp564
(I12
I4
I13
tp565
a(I12
I13
I17
tp566
a(I0
I3
I6
tp567
a(I18
I19
I26
tp568
a(I22
I18
I26
tp569
a(I38
I24
I33
tp570
a(I0
I6
I9
tp571
a(I43
I29
I38
tp572
a(I42
I31
I43
tp573
a(I7
I9
I11
tp574
a(I42
I30
I31
tp575
a(I10
I11
I15
tp576
a(I34
I23
I27
tp577
a(I21
I15
I20
tp578
a(I37
I34
I27
tp579
a(I34
I32
I23
tp580
a(I32
I20
I23
tp581
a(I25
I21
I32
tp582
a(I21
I20
I32
tp583
a(I10
I15
I21
tp584
a(I10
I21
I16
tp585
a(I7
I11
I10
tp586
a(I0
I9
I7
tp587
a(I0
I7
I5
tp588
a(I0
I5
I2
tp589
a(I0
I2
I1
tp590
a(I8
I4
I13
tp591
a(I8
I13
I14
tp592
a(I13
I17
I19
tp593
a(I14
I36
I39
tp594
a(I8
I14
I39
tp595
a(I19
I17
I18
tp596
a(I33
I26
I22
tp597
a(I33
I22
I24
tp598
a(I33
I38
I35
tp599
a(I24
I29
I38
tp600
a(I38
I43
I41
tp601
a(I29
I31
I43
tp602
a(I43
I42
I44
tp603
a(I30
I28
I40
tp604
a(I28
I27
I37
tp605
a(I30
I40
I42
tp606
a(I28
I37
I40
tp607
a(dp608
g19
F713.0
sg20
F537.0
sg21
F49.0
sg22
F438.0
sg23
F-13.0
sg24
F49.0
stp609
sV4
p610
((dp611
I0
(F10.0000000955
F189.9999999955
tp612
sI1
(F184.000000059
F293.9999999634
tp613
sI2
(F311.0
F294.0
tp614
sI3
(F311.0000000003
F-9.300000000009001e-08
tp615
sI4
(F311.0000000505
F503.999999969
tp616
sI5
(F311.0000000764
F189.99999999813522
tp617
sI6
(F332.0000004206
F699.9999998014
tp618
sI7
(F439.0000000002
F-8.760000000004e-08
tp619
sI8
(F439.00000001910007
F189.99999999925586
tp620
sI10
(F439.0000004907
F699.9999996934
tp621
sI11
(F524.0
F190.0
tp622
sI12
(F524.0000002655
F293.9999995293
tp623
sI14
(F439.00000028857283
F377.80281649883807
tp624
s(lp625
(I4
I6
I10
tp626
a(I1
I6
I4
tp627
a(I0
I6
I1
tp628
a(I5
I1
I2
tp629
a(I5
I2
I14
tp630
a(I5
I14
I8
tp631
a(I14
I12
I11
tp632
a(I14
I11
I8
tp633
a(I0
I1
I5
tp634
a(I3
I5
I7
tp635
a(I14
I14
I2
tp636
a(I10
I4
I14
tp637
a(I7
I8
I5
tp638
a(I2
I14
I4
tp639
a(dp640
g19
F700.0
sg20
F581.0
sg21
F10.0
sg22
F514.0
sg23
F0.0
sg24
F10.0
stp641
sV7
p642
((dp643
I0
(F43.0000002308
F575.9999999832
tp644
sI1
(F43.0000003505
F699.999999979
tp645
sI2
(F77.0000000002
F-1.5200000000040003e-08
tp646
sI3
(F211.0000000001
F-2.100000000001e-08
tp647
sI4
(F317.0000001731
F575.9999999052
tp648
sI5
(F503.0
F700.0
tp649
sI7
(F155.82352948358522
F189.17647058249557
tp650
s(lp651
(I4
I1
I5
tp652
a(I0
I1
I4
tp653
a(I7
I4
I3
tp654
a(I7
I3
I2
tp655
a(I5
I4
I3
tp656
a(dp657
g19
F700.0
sg20
F510.0
sg21
F43.0
sg22
F460.0
sg23
F0.0
sg24
F43.0
stp658
sV6
p659
((dp660
I0
(F58.0000002032
F252.9999999544
tp661
sI1
(F61.71875013271563
F188.59374995749687
tp662
sI2
(F66.375000310275
F343.7499999411625
tp663
sI3
(F72.875000080625
F133.374999956875
tp664
sI4
(F91.46875004417187
F87.34374995476563
tp665
sI5
(F91.500000433
F431.9999999095
tp666
sI6
(F117.5000000206
F50.4999999534
tp667
sI7
(F128.5000005636125
F511.37499985975
tp668
sI8
(F149.71875000698438
F22.281249955384375
tp669
sI9
(F172.5000006918
F575.4999997942
tp670
sI10
(F182.0000000816
F202.9999999276
tp671
sI11
(F186.875000000625
F2.124999962825
tp672
sI12
(F190.250000075975
F252.249999943225
tp673
sI13
(F190.3750000805625
F160.1249999053125
tp674
sI14
(F193.0000008809
F381.9999995584
tp675
sI15
(F210.6250009724
F440.999999538825
tp676
sI16
(F211.87500096015
F399.0624994939
tp677
sI17
(F215.0000000578
F287.9999999572
tp678
sI18
(F215.5000000771
F127.4999998713
tp679
sI19
(F220.7500008155875
F626.374999714325
tp680
sI20
(F228.96874999910312
F-9.968750022796875
tp681
sI21
(F237.500001030625
F411.24999940875
tp682
sI22
(F249.5000010605
F503.99999947815
tp683
sI23
(F250.6250000755125
F106.8749998252625
tp684
sI24
(F253.000000031075
F309.7499999748
tp685
sI25
(F269.8750010908625
F418.56249930092497
tp686
sI26
(F270.5000009338
F665.9999996227
tp687
sI27
(F276.0
F-14.0
tp688
sI28
(F289.0000000808
F99.9999997696
tp689
sI29
(F300.62500112775
F562.87499940075
tp690
sI30
(F301.0
F317.0
tp691
sI31
(F309.0000011394
F420.9999991684
tp692
sI32
(F317.62500103875
F691.4999995250625
tp693
sI33
(F327.90624996338124
F-9.71875137300625
tp694
sI34
(F334.3750000988875
F108.8749996999625
tp695
sI35
(F344.2500004659375
F309.624999485125
tp696
sI36
(F353.3750011724125
F417.71874901335
tp697
sI37
(F355.00000115995
F609.4999993274
tp698
sI38
(F358.0000011216
F699.9999994288
tp699
sI39
(F370.5000001365
F135.4999996305
tp700
sI40
(F374.6250000169125
F3.1249984681375
tp701
sI41
(F376.0000004039
F287.499999475
tp702
sI42
(F393.5000011857375
F407.87499886175
tp703
sI43
(F394.1250001931875
F174.6249995675625
tp704
sI44
(F395.5000003342625
F256.12499948715
tp705
sI45
(F402.0000002664
F220.9999995188
tp706
sI46
(F404.750001153575
F639.87499927325
tp707
sI47
(F416.156250102125
F24.531248339375
tp708
sI48
(F429.37500117740626
F391.468748714875
tp709
sI49
(F442.0000011067
F649.9999992503
tp710
sI50
(F452.50000021645
F54.49999823915
tp711
sI51
(F461.00000114545
F368.499998574
tp712
sI52
(F482.03125034758125
F90.46874817208125
tp713
sI53
(F486.8125010895
F339.4687484454
tp714
sI54
(F503.1250004842375
F129.87499814213749
tp715
sI55
(F505.2500010093875
F304.874998335975
tp716
sI56
(F515.7812506253875
F172.7187481467875
tp717
sI57
(F516.3125009034437
F264.71874824793747
tp718
sI58
(F520.00000077
F218.9999981835
tp719
s(lp720
(I14
I2
I5
tp721
a(I9
I22
I7
tp722
a(I29
I26
I37
tp723
a(I37
I32
I38
tp724
a(I19
I26
I29
tp725
a(I19
I29
I22
tp726
a(I22
I15
I7
tp727
a(I15
I5
I7
tp728
a(I14
I5
I15
tp729
a(I12
I2
I14
tp730
a(I21
I14
I16
tp731
a(I24
I14
I21
tp732
a(I31
I21
I25
tp733
a(I36
I35
I30
tp734
a(I42
I48
I36
tp735
a(I36
I30
I31
tp736
a(I24
I21
I30
tp737
a(I17
I14
I24
tp738
a(I30
I21
I31
tp739
a(I12
I14
I17
tp740
a(I41
I35
I48
tp741
a(I44
I41
I53
tp742
a(I0
I2
I12
tp743
a(I43
I45
I56
tp744
a(I52
I43
I56
tp745
a(I47
I39
I52
tp746
a(I0
I12
I10
tp747
a(I33
I34
I47
tp748
a(I3
I10
I13
tp749
a(I27
I23
I28
tp750
a(I3
I13
I6
tp751
a(I11
I18
I23
tp752
a(I20
I11
I27
tp753
a(I11
I23
I27
tp754
a(I6
I18
I11
tp755
a(I6
I11
I8
tp756
a(I13
I18
I6
tp757
a(I3
I6
I4
tp758
a(I0
I10
I3
tp759
a(I0
I3
I1
tp760
a(I9
I22
I19
tp761
a(I32
I26
I37
tp762
a(I38
I37
I46
tp763
a(I38
I46
I49
tp764
a(I48
I53
I51
tp765
a(I48
I36
I35
tp766
a(I48
I41
I53
tp767
a(I53
I57
I55
tp768
a(I53
I44
I57
tp769
a(I57
I56
I58
tp770
a(I57
I44
I45
tp771
a(I57
I45
I56
tp772
a(I56
I52
I54
tp773
a(I43
I39
I52
tp774
a(I52
I47
I50
tp775
a(I39
I34
I47
tp776
a(I34
I28
I33
tp777
a(I47
I33
I40
tp778
a(I28
I27
I33
tp779
a(dp780
g19
F714.0
sg20
F562.0
sg21
F58.0
sg22
F462.0
sg23
F-14.0
sg24
F58.0
stp781
sV9
p782
((dp783
I0
(F42.0000016765
F477.9999998565
tp784
sI1
(F45.62500147485625
F432.78124984827497
tp785
sI2
(F46.2187518957375
F525.5937498372125
tp786
sI3
(F56.5000013006125
F393.12499981685
tp787
sI4
(F58.8750021103875
F569.3749997858625
tp788
sI5
(F74.6250011521
F359.0312497644
tp789
sI6
(F79.96875231930625
F609.3437496999187
tp790
sI7
(F100.00000102765
F330.4999996931
tp791
sI8
(F109.50000252135
F645.49999957685
tp792
sI9
(F123.0000000867
F49.9999997926
tp793
sI10
(F131.31250092690624
F307.9687496090625
tp794
sI11
(F145.843752705875
F675.468749420625
tp795
sI12
(F162.62500010755
F58.749999709075
tp796
sI13
(F167.0000005808
F482.9999998008
tp797
sI14
(F167.2500008493375
F291.874999517875
tp798
sI15
(F173.1250005796375
F444.8749997762375
tp799
sI16
(F174.5000005801125
F526.37499980915
tp800
sI17
(F187.3750028612875
F696.8749992358624
tp801
sI18
(F191.5000005789
F412.4999997333
tp802
sI19
(F197.0000005655
F564.499999804
tp803
sI20
(F204.0000000016
F-3.2480000000256e-07
tp804
sI21
(F207.8125007930125
F282.218749420925
tp805
sI22
(F213.5000001634
F84.99999959625
tp806
sI23
(F222.1250005870625
F390.3749996683125
tp807
sI24
(F232.5000005329125
F591.12499979165
tp808
sI25
(F234.09375298501874
F709.7187490210063
tp809
sI26
(F253.000000756
F278.9999993196
tp810
sI27
(F253.1250000144375
F8.6249996218125
tp811
sI28
(F265.0
F383.0
tp812
sI29
(F268.500000257
F127.499999465
tp813
sI30
(F279.0000004808
F599.9999997776
tp814
sI31
(F279.875000734175
F281.374999274925
tp815
sI32
(F286.0
F714.0
tp816
sI33
(F304.5000000497
F34.4999995751
tp817
sI34
(F312.375000039125
F390.2499999688625
tp818
sI35
(F316.50000072375
F288.49999921125
tp819
sI36
(F318.3750004164125
F593.8749997778375
tp820
sI37
(F320.5000003906
F184.99999932905
tp821
sI38
(F333.0625000710937
F709.9374999667938
tp822
sI39
(F350.5000000826
F411.9999999301
tp823
sI40
(F351.8750007233
F300.3749991579
tp824
sI41
(F352.5000003459
F575.4999997891
tp825
sI42
(F355.000000098475
F74.7499995398
tp826
sI43
(F359.3750005533
F250.499999211575
tp827
sI44
(F375.0000007314
F316.9999991398
tp828
sI45
(F375.25000013975
F697.74999992515
tp829
sI46
(F375.62500013455
F447.4999998876125
tp830
sI47
(F376.1250002721875
F543.3749998124375
tp831
sI48
(F384.0000001988
F495.9999998468
tp832
sI49
(F401.500000153
F126.4999995194
tp833
sI50
(F412.5625002035313
F677.4374998765312
tp834
sI51
(F442.2500002112
F190.999999514625
tp835
sI52
(F445.00000026
F648.9999998224
tp836
sI53
(F471.25000030653126
F612.062499764875
tp837
sI54
(F475.5000002705
F269.4999995255
tp838
sI55
(F490.00000034035
F566.2499997066
tp839
sI56
(F497.6250003220875
F356.8749995530375
tp840
sI57
(F501.2500003587937
F511.562499649825
tp841
sI58
(F505.0000003592
F447.9999995968
tp842
s(lp843
(I6
I2
I4
tp844
a(I16
I2
I6
tp845
a(I11
I17
I8
tp846
a(I17
I19
I8
tp847
a(I19
I6
I8
tp848
a(I32
I17
I25
tp849
a(I38
I45
I32
tp850
a(I36
I30
I32
tp851
a(I24
I17
I30
tp852
a(I19
I17
I24
tp853
a(I16
I6
I19
tp854
a(I36
I32
I45
tp855
a(I13
I2
I16
tp856
a(I47
I41
I52
tp857
a(I47
I52
I55
tp858
a(I48
I47
I55
tp859
a(I0
I2
I13
tp860
a(I0
I13
I15
tp861
a(I5
I15
I18
tp862
a(I40
I35
I44
tp863
a(I26
I21
I23
tp864
a(I26
I23
I28
tp865
a(I10
I18
I23
tp866
a(I37
I43
I51
tp867
a(I26
I35
I31
tp868
a(I28
I35
I26
tp869
a(I14
I10
I21
tp870
a(I10
I23
I21
tp871
a(I27
I22
I33
tp872
a(I5
I18
I10
tp873
a(I5
I10
I7
tp874
a(I0
I15
I5
tp875
a(I1
I5
I3
tp876
a(I0
I5
I1
tp877
a(I32
I17
I30
tp878
a(I45
I36
I41
tp879
a(I50
I45
I52
tp880
a(I52
I45
I41
tp881
a(I52
I55
I53
tp882
a(I55
I48
I57
tp883
a(I48
I46
I58
tp884
a(I57
I48
I58
tp885
a(I44
I46
I39
tp886
a(I46
I44
I56
tp887
a(I58
I46
I56
tp888
a(I35
I34
I28
tp889
a(I34
I44
I39
tp890
a(I56
I44
I54
tp891
a(I34
I35
I44
tp892
a(I54
I44
I43
tp893
a(I54
I43
I51
tp894
a(I51
I37
I49
tp895
a(I37
I29
I42
tp896
a(I49
I37
I42
tp897
a(I42
I29
I33
tp898
a(I29
I22
I33
tp899
a(I22
I12
I20
tp900
a(I27
I22
I20
tp901
a(I20
I12
I9
tp902
a(dp903
g19
F714.0
sg20
F564.0
sg21
F42.0
sg22
F463.0
sg23
F0.0
sg24
F42.0
stp904
sV8
p905
((dp906
I0
(F56.0000001488
F184.999999956
tp907
sI1
(F59.75000010224375
F145.062499958875
tp908
sI2
(F62.7500002163375
F239.374999944425
tp909
sI3
(F71.00000006555
F108.249999958
tp910
sI4
(F83.0000002905
F289.499999918
tp911
sI5
(F89.75000003778125
F74.562499955625
tp912
sI6
(F95.0000008608
F536.9999998496
tp913
sI7
(F98.09375097718124
F573.8124998349406
tp914
sI8
(F99.3125007329375
F487.62499985253123
tp915
sI9
(F107.37500109485
F607.249999808525
tp916
sI10
(F112.2500006237
F444.49999984425
tp917
sI11
(F116.000000018
F43.999999954
tp918
sI12
(F116.7500003700125
F335.374999872675
tp919
sI13
(F122.84375121279375
F637.3124997684969
tp920
sI14
(F133.8125005312125
F407.62499982734374
tp921
sI15
(F144.50000133
F663.999999713
tp922
sI16
(F149.4375000058875
F18.62499995546875
tp923
sI17
(F164.0000004536
F376.9999998044
tp924
sI18
(F173.0937514424375
F685.8749996386031
tp925
sI19
(F178.0000000784
F194.9999999292
tp926
sI20
(F185.875000075375
F149.7499999075625
tp927
sI21
(F187.375000074325
F246.7499999440875
tp928
sI22
(F189.7500000003
F0.49999996225
tp929
sI23
(F207.0000002104
F524.9999999176
tp930
sI24
(F209.3750015455
F701.499999541575
tp931
sI25
(F209.5000000702
F115.9999998749
tp932
sI26
(F212.5000001686375
F561.12499993655
tp933
sI27
(F212.500000245625
F490.24999989425
tp934
sI28
(F215.5000000578
F287.9999999571
tp935
sI29
(F229.0000001181
F589.4999999544
tp936
sI30
(F229.0000002778
F461.9999998632
tp937
sI31
(F236.9374999990625
F-10.37500002359375
tp938
sI32
(F246.8750000672
F94.9999998278875
tp939
sI33
(F253.3437516373125
F710.8749994196094
tp940
sI34
(F256.3750000318
F316.9999999744625
tp941
sI35
(F256.500000308875
F440.24999982115
tp942
sI36
(F257.7500000608875
F607.874999974325
tp943
sI37
(F291.0
F-14.0
tp944
sI38
(F295.0000003408
F424.9999997648
tp945
sI39
(F296.0000000712
F87.999999764
tp946
sI40
(F300.0
F614.0
tp947
sI41
(F304.0
F332.0
tp948
sI42
(F305.000001716
F713.9999992703999
tp949
sI43
(F336.5625003980812
F441.31249969799376
tp950
sI44
(F340.6250009136875
F608.1249994905625
tp951
sI45
(F347.7500000869625
F95.624999687925
tp952
sI46
(F349.3437499584344
F-9.843751637215625
tp953
sI47
(F349.750000474375
F315.249999476875
tp954
sI48
(F354.4062517803906
F711.1562491164843
tp955
sI49
(F366.25000046525
F464.24999963475
tp956
sI50
(F368.5000008281
F590.4999994855
tp957
sI51
(F384.06250054429375
F493.8124995786313
tp958
sI52
(F384.6250007340125
F563.6249995012874
tp959
sI53
(F387.0000001195
F118.499999614
tp960
sI54
(F387.0000004032
F286.9999994596
tp961
sI55
(F390.0000006372
F529.9999995332
tp962
sI56
(F396.625001829425
F702.624998971375
tp963
sI57
(F400.375000016675
F2.624998162875
tp964
sI58
(F411.7500001706375
F154.124999548175
tp965
sI59
(F411.750000324025
F248.249999466025
tp966
sI60
(F420.0000002412
F199.9999994972
tp967
sI61
(F422.0000013932
F385.9999984844
tp968
sI62
(F431.65625186139687
F688.4062488372281
tp969
sI63
(F444.09375010982814
F23.406248006078126
tp970
sI64
(F459.5000018746
F668.4999987162
tp971
sI65
(F459.6250014853125
F423.3749983948125
tp972
sI66
(F472.50000131535
F354.49999825545
tp973
sI67
(F480.5000002354
F52.4999978902
tp974
sI68
(F480.7187518709531
F644.1562486088156
tp975
sI69
(F486.5000015793
F463.4999983493
tp976
sI70
(F495.875001852875
F616.624998515375
tp977
sI71
(F502.6250016743375
F506.3749983446375
tp978
sI72
(F504.96875181940936
F585.9062484376968
tp979
sI73
(F508.0000017696
F551.9999983776
tp980
sI74
(F509.15625037799686
F86.90624781492812
tp981
sI75
(F512.0000011894
F311.9999980582
tp982
sI76
(F529.625000523425
F123.624997779775
tp983
sI77
(F537.5000010218
F260.99999790764997
tp984
sI78
(F541.9062506709906
F162.65624778228437
tp985
sI79
(F546.00000082
F203.99999782
tp986
s(lp987
(I15
I26
I7
tp988
a(I7
I8
I6
tp989
a(I29
I26
I15
tp990
a(I14
I10
I8
tp991
a(I0
I2
I4
tp992
a(I23
I27
I8
tp993
a(I21
I4
I12
tp994
a(I30
I14
I27
tp995
a(I14
I8
I27
tp996
a(I21
I12
I28
tp997
a(I30
I17
I14
tp998
a(I35
I17
I30
tp999
a(I50
I44
I56
tp1000
a(I34
I17
I35
tp1001
a(I72
I73
I68
tp1002
a(I28
I17
I34
tp1003
a(I35
I38
I34
tp1004
a(I41
I43
I47
tp1005
a(I61
I49
I51
tp1006
a(I71
I69
I73
tp1007
a(I69
I51
I55
tp1008
a(I38
I41
I34
tp1009
a(I41
I38
I43
tp1010
a(I12
I17
I28
tp1011
a(I61
I43
I49
tp1012
a(I47
I43
I61
tp1013
a(I19
I4
I21
tp1014
a(I54
I47
I61
tp1015
a(I59
I54
I66
tp1016
a(I60
I59
I77
tp1017
a(I0
I4
I19
tp1018
a(I78
I60
I77
tp1019
a(I58
I60
I78
tp1020
a(I74
I58
I78
tp1021
a(I57
I53
I67
tp1022
a(I0
I19
I20
tp1023
a(I57
I45
I53
tp1024
a(I46
I39
I45
tp1025
a(I3
I20
I11
tp1026
a(I11
I25
I16
tp1027
a(I31
I32
I39
tp1028
a(I37
I39
I46
tp1029
a(I31
I39
I37
tp1030
a(I16
I32
I31
tp1031
a(I16
I31
I22
tp1032
a(I25
I32
I16
tp1033
a(I20
I25
I11
tp1034
a(I3
I11
I5
tp1035
a(I0
I20
I3
tp1036
a(I0
I3
I1
tp1037
a(I7
I15
I9
tp1038
a(I9
I15
I13
tp1039
a(I29
I36
I18
tp1040
a(I18
I33
I24
tp1041
a(I8
I23
I7
tp1042
a(I7
I23
I26
tp1043
a(I18
I15
I29
tp1044
a(I33
I40
I42
tp1045
a(I33
I18
I36
tp1046
a(I36
I40
I33
tp1047
a(I42
I40
I48
tp1048
a(I48
I40
I44
tp1049
a(I48
I44
I56
tp1050
a(I56
I68
I62
tp1051
a(I62
I68
I64
tp1052
a(I56
I50
I68
tp1053
a(I50
I52
I68
tp1054
a(I68
I72
I70
tp1055
a(I52
I55
I73
tp1056
a(I55
I69
I73
tp1057
a(I52
I73
I68
tp1058
a(I51
I61
I69
tp1059
a(I69
I61
I65
tp1060
a(I61
I54
I66
tp1061
a(I66
I77
I75
tp1062
a(I66
I59
I77
tp1063
a(I77
I78
I79
tp1064
a(I78
I74
I76
tp1065
a(I58
I67
I74
tp1066
a(I58
I53
I67
tp1067
a(I67
I57
I63
tp1068
a(I45
I46
I57
tp1069
a(dp1070
g19
F728.0
sg20
F602.0
sg21
F56.0
sg22
F490.0
sg23
F-14.0
sg24
F56.0
stp1071
sV;
p1072
((dp1073
I0
(F55.999999981
F-96.000000011
tp1074
sI1
(F56.000000000200004
F-2.199998050400609e-08
tp1075
sI2
(F56.0000000622
F309.9999999945
tp1076
sI3
(F56.0000000262
F129.99999997250004
tp1077
sI4
(F56.0000000882
F439.999999989
tp1078
sI5
(F81.9999999891
F-110.0000000081
tp1079
sI6
(F88.9999999973
F-10.0000000264
tp1080
sI7
(F180.0
F0.0
tp1081
sI8
(F180.0000000786
F129.9999998926
tp1082
sI9
(F193.0
F310.0
tp1083
sI10
(F193.0000001323
F439.9999999424
tp1084
s(lp1085
(I9
I2
I4
tp1086
a(I6
I1
I3
tp1087
a(I7
I6
I8
tp1088
a(I5
I6
I7
tp1089
a(I0
I6
I5
tp1090
a(I4
I9
I10
tp1091
a(I3
I6
I8
tp1092
a(dp1093
g19
F550.0
sg20
F247.0
sg21
F56.0
sg22
F137.0
sg23
F-110.0
sg24
F56.0
stp1094
sV:
p1095
((dp1096
I0
(F54.0000000001
F-5.30000000001e-09
tp1097
sI1
(F54.00000002612954
F129.9999999894
tp1098
sI2
(F54.00000006217046
F309.9999999947
tp1099
sI3
(F54.0000000882
F439.9999999894
tp1100
sI4
(F178.0
F0.0
tp1101
sI5
(F178.0000000933
F310.0
tp1102
sI6
(F178.0000000393
F129.9999999469
tp1103
sI7
(F178.0000001323
F439.9999999469
tp1104
s(lp1105
(I5
I2
I3
tp1106
a(I4
I1
I6
tp1107
a(I0
I1
I4
tp1108
a(I3
I5
I7
tp1109
a(dp1110
g19
F440.0
sg20
F232.0
sg21
F54.0
sg22
F124.0
sg23
F0.0
sg24
F54.0
stp1111
sV=
p1112
((dp1113
I0
(F62.0000000151
F149.9999999939
tp1114
sI2
(F62.00000003948819
F243.9999999878
tp1115
sI3
(F62.000000081
F403.9999999878
tp1116
sI4
(F432.0
F150.0
tp1117
sI5
(F432.0000000933
F310.0
tp1118
sI7
(F432.0000001215
F403.9999998707
tp1119
sI9
(F62.000000056611796
F309.9999999939
tp1120
sI10
(F432.0000000641569
F243.9999998707
tp1121
s(lp1122
(I5
I9
I3
tp1123
a(I0
I2
I4
tp1124
a(I3
I5
I7
tp1125
a(I10
I4
I2
tp1126
a(dp1127
g19
F254.0
sg20
F494.0
sg21
F62.0
sg22
F370.0
sg23
F150.0
sg24
F62.0
stp1128
sV<
p1129
((dp1130
I0
(F29.000000057
F283.9999999944
tp1131
sI1
(F176.0000001425
F283.9999999125
tp1132
sI2
(F241.0000000079
F77.999999976
tp1133
sI3
(F241.0000001473
F489.999999928
tp1134
sI4
(F388.0
F78.0
tp1135
sI5
(F388.0000001964
F489.9999998452
tp1136
s(lp1137
(I1
I3
I5
tp1138
a(I0
I3
I1
tp1139
a(I2
I1
I4
tp1140
a(I0
I1
I2
tp1141
a(dp1142
g19
F412.0
sg20
F446.0
sg21
F29.0
sg22
F359.0
sg23
F78.0
sg24
F29.0
stp1143
sV?
p1144
((dp1145
I0
(F29.000001292
F678.9999999468
tp1146
sI1
(F57.0000010584
F586.9999998992
tp1147
sI2
(F57.000001422125
F710.062499888
tp1148
sI3
(F82.00000104794375
F615.4374998623
tp1149
sI4
(F93.000001539825
F732.2499998068
tp1150
sI5
(F111.0000010188
F635.749999824
tp1151
sI6
(F137.0000016424375
F745.5624997008
tp1152
sI7
(F140.0000000001
F-1.390000000001e-08
tp1153
sI8
(F140.000000025
F123.9999999722
tp1154
sI9
(F144.00000097340626
F647.9374997855
tp1155
sI10
(F157.0000000762
F252.9999999532
tp1156
sI11
(F157.75000004735
F235.74999996865
tp1157
sI12
(F160.0000000201
F199.9999999841
tp1158
sI13
(F161.87500011855
F295.37499993565
tp1159
sI14
(F176.50000016975
F338.49999991225
tp1160
sI15
(F181.0000009142
F651.999999748
tp1161
sI16
(F189.0000017273
F749.9999995676
tp1162
sI17
(F197.00000022785
F378.7499998824
tp1163
sI18
(F219.50000028945
F412.49999984705
tp1164
sI19
(F221.7500008412625
F646.124999713025
tp1165
sI20
(F235.781251793325
F746.218749436525
tp1166
sI21
(F244.0
F200.0
tp1167
sI22
(F244.0000008132
F212.9999990766
tp1168
sI23
(F248.000000938875
F252.7499990861
tp1169
sI24
(F254.0000007554
F628.4999996964
tp1170
sI25
(F260.0000010548
F291.9999990676
tp1171
sI26
(F262.5000003872
F482.9999997908
tp1172
sI27
(F264.0
F0.0
tp1173
sI28
(F264.0000000375
F123.9999999211
tp1174
sI29
(F275.0000006604125
F599.3749996986
tp1175
sI30
(F277.1250004707
F521.9999997514875
tp1176
sI31
(F277.1250018396875
F734.8749993096875
tp1177
sI32
(F282.00000056
F558.999999719
tp1178
sI33
(F299.000001274
F362.999998957
tp1179
sI34
(F313.03125186411876
F715.9687491887188
tp1180
sI35
(F343.50000186435
F689.49999907525
tp1181
sI36
(F344.0000014518
F425.9999988338
tp1182
sI37
(F367.7812518472125
F658.7187489730125
tp1183
sI38
(F383.0000016269
F491.9999987394
tp1184
sI39
(F385.1250018208375
F626.8749988860375
tp1185
sI40
(F395.000001688
F526.4999987392
tp1186
sI41
(F395.53125178490626
F593.9687488164062
tp1187
sI42
(F399.0000017391
F559.9999987662
tp1188
s(lp1189
(I0
I2
I4
tp1190
a(I16
I4
I6
tp1191
a(I9
I4
I16
tp1192
a(I31
I19
I16
tp1193
a(I24
I35
I29
tp1194
a(I35
I37
I39
tp1195
a(I34
I35
I31
tp1196
a(I35
I24
I31
tp1197
a(I31
I16
I20
tp1198
a(I15
I16
I19
tp1199
a(I9
I16
I15
tp1200
a(I29
I35
I39
tp1201
a(I5
I4
I9
tp1202
a(I32
I29
I39
tp1203
a(I0
I4
I5
tp1204
a(I26
I30
I36
tp1205
a(I18
I26
I36
tp1206
a(I0
I5
I3
tp1207
a(I17
I18
I33
tp1208
a(I14
I17
I13
tp1209
a(I10
I23
I22
tp1210
a(I10
I22
I12
tp1211
a(I13
I17
I25
tp1212
a(I10
I13
I23
tp1213
a(I0
I3
I1
tp1214
a(I31
I19
I24
tp1215
a(I39
I42
I41
tp1216
a(I39
I32
I42
tp1217
a(I42
I38
I40
tp1218
a(I32
I30
I38
tp1219
a(I42
I32
I38
tp1220
a(I38
I30
I36
tp1221
a(I36
I18
I33
tp1222
a(I33
I17
I25
tp1223
a(I25
I13
I23
tp1224
a(I12
I10
I11
tp1225
a(I21
I22
I12
tp1226
a(I27
I28
I8
tp1227
a(I27
I8
I7
tp1228
a(dp1229
g19
F750.0
sg20
F442.0
sg21
F29.0
sg22
F370.0
sg23
F0.0
sg24
F29.0
stp1230
sV>
p1231
((dp1232
I0
(F58.0000000158
F77.9999999886
tp1233
sI1
(F58.0000001964
F489.9999999772
tp1234
sI2
(F205.0000000079
F77.9999999796
tp1235
sI3
(F205.0000002455
F489.999999898
tp1236
sI4
(F270.0000000855
F283.9999999193
tp1237
sI5
(F417.0
F284.0
tp1238
s(lp1239
(I4
I1
I3
tp1240
a(I2
I4
I5
tp1241
a(I0
I4
I2
tp1242
a(I3
I4
I5
tp1243
a(dp1244
g19
F412.0
sg20
F446.0
sg21
F58.0
sg22
F359.0
sg23
F78.0
sg24
F58.0
stp1245
sVA
p1246
((dp1247
I0
(F3.0000000005
F-1.0000000002499999e-09
tp1248
sI1
(F136.0000000004
F-7.851373184515226e-10
tp1249
sI2
(F196.000000051
F168.9999999415
tp1250
sI3
(F240.0000000588
F292.9999999522
tp1251
sI4
(F252.0000004206
F699.9999998494
tp1252
sI5
(F312.0000000499
F497.9999999689
tp1253
sI6
(F373.0000004907
F699.9999997396
tp1254
sI7
(F385.0
F293.0
tp1255
sI8
(F429.000000034
F168.9999999144
tp1256
sI9
(F489.00000000010004
F-2.1486268179847717e-10
tp1257
sI10
(F622.0
F0.0
tp1258
s(lp1259
(I5
I4
I6
tp1260
a(I3
I4
I5
tp1261
a(I0
I4
I3
tp1262
a(I0
I3
I2
tp1263
a(I8
I2
I7
tp1264
a(I9
I8
I10
tp1265
a(I0
I2
I1
tp1266
a(I3
I2
I7
tp1267
a(I6
I5
I7
tp1268
a(I10
I7
I8
tp1269
a(I6
I7
I10
tp1270
a(dp1271
g19
F700.0
sg20
F625.0
sg21
F3.0
sg22
F619.0
sg23
F0.0
sg24
F3.0
stp1272
sVC
p1273
((dp1274
I0
(F35.0000002808
F349.9999999728
tp1275
sI1
(F41.03125019138437
F272.4062499719781
tp1276
sI2
(F41.031250385734374
F427.5937499639719
tp1277
sI3
(F59.125000122175
F202.624999965125
tp1278
sI4
(F59.125000498375
F497.374999941875
tp1279
sI5
(F89.28125007082812
F140.65624995585938
tp1280
sI6
(F89.28125061637813
F559.3437499028906
tp1281
sI7
(F131.500000035
F86.4999999478
tp1282
sI8
(F131.5000007374
F613.4999998434
tp1283
sI9
(F175.0000010881
F349.9999994606
tp1284
sI10
(F178.3125009574
F298.1874994326
tp1285
sI11
(F178.3125012084375
F401.81249946806247
tp1286
sI12
(F183.21875001305938
F42.53124994533437
tp1287
sI13
(F183.21875085600936
F657.4687497631156
tp1288
sI14
(F188.250000834075
F251.749999382075
tp1289
sI15
(F188.250001302825
F448.249999456975
tp1290
sI16
(F204.8125007197375
F210.68749930703748
tp1291
sI17
(F204.812501372875
F489.312499429325
tp1292
sI18
(F228.000000616
F174.9999992055
tp1293
sI19
(F228.0000014202
F524.9999993871
tp1294
sI20
(F241.875000002425
F11.124999951825
tp1295
sI21
(F241.875000965825
F688.874999662775
tp1296
sI22
(F257.37500052965
F146.12499907705
tp1297
sI23
(F257.375001442675
F553.874999333425
tp1298
sI24
(F292.50000046805
F125.49999892145
tp1299
sI25
(F292.50000143875
F574.49999927125
tp1300
sI26
(F307.4687499993281
F-7.718750030646875
tp1301
sI27
(F307.4687510630781
F707.7187495402969
tp1302
sI28
(F333.375000433675
F113.124998736975
tp1303
sI29
(F333.3750014109
F586.8749992023
tp1304
sI30
(F380.0
F-14.0
tp1305
sI31
(F380.000000429
F108.9999985219
tp1306
sI32
(F380.000001144
F713.9999993936
tp1307
sI33
(F380.0000013616
F590.9999991283
tp1308
sI34
(F435.56249995303125
F-11.43750195553125
tp1309
sI35
(F435.56250121114374
F711.4374992612437
tp1310
sI36
(F468.25000048
F118.999998131
tp1311
sI37
(F468.2500012804
F580.99999897205
tp1312
sI38
(F487.2499999879
F-3.7500021395
tp1313
sI39
(F487.25000126855
F703.74999912475
tp1314
sI40
(F535.0625000432688
F9.06249770353125
tp1315
sI41
(F535.0625013146813
F690.9374989852812
tp1316
sI42
(F565.000000615
F148.9999976876
tp1317
sI43
(F565.0000011592
F550.9999988156
tp1318
sI44
(F579.0000001176
F26.999997572399998
tp1319
sI45
(F579.000001348
F672.999998844
tp1320
s(lp1321
(I15
I2
I4
tp1322
a(I8
I19
I6
tp1323
a(I13
I21
I23
tp1324
a(I21
I27
I25
tp1325
a(I17
I4
I6
tp1326
a(I23
I8
I13
tp1327
a(I33
I29
I32
tp1328
a(I19
I8
I23
tp1329
a(I17
I6
I19
tp1330
a(I15
I4
I17
tp1331
a(I33
I32
I35
tp1332
a(I37
I33
I35
tp1333
a(I11
I2
I15
tp1334
a(I0
I2
I11
tp1335
a(I0
I11
I9
tp1336
a(I0
I9
I10
tp1337
a(I40
I36
I42
tp1338
a(I1
I10
I14
tp1339
a(I34
I31
I36
tp1340
a(I3
I14
I16
tp1341
a(I26
I24
I28
tp1342
a(I5
I16
I18
tp1343
a(I7
I18
I22
tp1344
a(I26
I20
I24
tp1345
a(I20
I22
I24
tp1346
a(I12
I22
I20
tp1347
a(I7
I22
I12
tp1348
a(I5
I18
I7
tp1349
a(I3
I16
I5
tp1350
a(I1
I14
I3
tp1351
a(I0
I10
I1
tp1352
a(I27
I29
I32
tp1353
a(I21
I23
I25
tp1354
a(I27
I25
I29
tp1355
a(I35
I37
I39
tp1356
a(I39
I45
I41
tp1357
a(I39
I37
I45
tp1358
a(I45
I37
I43
tp1359
a(I42
I40
I44
tp1360
a(I36
I34
I40
tp1361
a(I40
I34
I38
tp1362
a(I31
I28
I30
tp1363
a(I31
I30
I34
tp1364
a(I28
I26
I30
tp1365
a(dp1366
g19
F728.0
sg20
F609.0
sg21
F35.0
sg22
F544.0
sg23
F-14.0
sg24
F35.0
stp1367
sVB
p1368
((dp1369
I0
(F77.0000000001
F-7.600000000010001e-09
tp1370
sI1
(F77.0000001402
F699.9999999848
tp1371
sI2
(F205.000000022
F108.9999999592
tp1372
sI3
(F205.0000000319
F317.9999999796
tp1373
sI4
(F205.0000000592
F590.9999999796
tp1374
sI5
(F205.00000004199998
F418.9999999592
tp1375
sI6
(F266.0000002103
F699.9999999205
tp1376
sI7
(F315.12500028
F698.99999987435
tp1377
sI8
(F318.0
F591.0
tp1378
sI9
(F330.000000126
F418.9999999013
tp1379
sI10
(F331.000000033
F108.999999901
tp1380
sI11
(F338.0
F318.0
tp1381
sI12
(F347.0
F0.0
tp1382
sI13
(F356.5000003485
F695.99999982225
tp1383
sI14
(F360.125000587125
F586.124999640875
tp1384
sI15
(F361.87500016985
F423.62499985565
tp1385
sI16
(F388.3750000464
F114.99999984505
tp1386
sI17
(F389.50000021925
F437.49999980575
tp1387
sI18
(F390.50000051525
F571.49999964945
tp1388
sI19
(F393.5625003124375
F311.4374996074375
tp1389
sI20
(F408.625000278175
F462.624999755425
tp1390
sI21
(F408.8750004361
F544.1249996737
tp1391
sI22
(F415.0000003514
F500.9999997102
tp1392
sI23
(F429.5000004092
F680.9999997429
tp1393
sI24
(F430.500000067
F132.99999978525
tp1394
sI25
(F433.250000263475
F291.749999610975
tp1395
sI26
(F436.5000000286
F9.9999988677
tp1396
sI27
(F456.3750000996
F164.999999726775
tp1397
sI28
(F457.06250020795
F258.93749963515
tp1398
sI29
(F461.5000004682125
F667.87499967765
tp1399
sI30
(F465.0000001498
F212.9999996752
tp1400
sI31
(F475.0000006
F373.9999992416
tp1401
sI32
(F477.00000006
F22.99999881
tp1402
sI33
(F486.5000005212
F650.4999996116
tp1403
sI34
(F500.81250060375
F401.49999925028123
tp1404
sI35
(F505.875000565875
F627.7499995456125
tp1405
sI36
(F515.5000001032
F41.9999987652
tp1406
sI37
(F519.2500006104
F434.99999927445
tp1407
sI38
(F521.0000005995
F598.49999948
tp1408
sI39
(F529.0000005901124
F346.1249991024
tp1409
sI40
(F530.31250061815
F474.49999931189376
tp1410
sI41
(F530.7500006199875
F562.624999417275
tp1411
sI42
(F534.0000006252
F519.9999993604
tp1412
sI43
(F549.125000161
F68.9999987393125
tp1413
sI44
(F567.0000005607
F310.4999989812
tp1414
sI45
(F575.0000002354
F105.9999987372
tp1415
sI46
(F589.5000005046875
F264.62499888185
tp1416
sI47
(F591.5000003213
F151.99999875995
tp1417
sI48
(F597.000000414
F205.999998808
tp1418
s(lp1419
(I5
I1
I4
tp1420
a(I8
I4
I6
tp1421
a(I3
I1
I5
tp1422
a(I8
I6
I13
tp1423
a(I0
I1
I3
tp1424
a(I9
I3
I5
tp1425
a(I18
I14
I23
tp1426
a(I35
I18
I23
tp1427
a(I11
I3
I9
tp1428
a(I42
I21
I35
tp1429
a(I11
I9
I15
tp1430
a(I42
I22
I21
tp1431
a(I11
I15
I19
tp1432
a(I31
I17
I20
tp1433
a(I41
I42
I35
tp1434
a(I42
I40
I22
tp1435
a(I19
I15
I31
tp1436
a(I34
I20
I40
tp1437
a(I31
I15
I17
tp1438
a(I31
I20
I34
tp1439
a(I25
I19
I31
tp1440
a(I0
I3
I2
tp1441
a(I28
I25
I39
tp1442
a(I46
I28
I39
tp1443
a(I47
I30
I46
tp1444
a(I12
I2
I10
tp1445
a(I12
I10
I16
tp1446
a(I26
I16
I24
tp1447
a(I43
I27
I47
tp1448
a(I36
I32
I43
tp1449
a(I32
I24
I43
tp1450
a(I26
I24
I32
tp1451
a(I12
I16
I26
tp1452
a(I0
I2
I12
tp1453
a(I1
I4
I6
tp1454
a(I6
I13
I7
tp1455
a(I13
I8
I14
tp1456
a(I13
I14
I23
tp1457
a(I23
I35
I29
tp1458
a(I29
I35
I33
tp1459
a(I18
I21
I35
tp1460
a(I35
I41
I38
tp1461
a(I20
I40
I22
tp1462
a(I40
I34
I37
tp1463
a(I39
I31
I25
tp1464
a(I39
I46
I44
tp1465
a(I28
I30
I46
tp1466
a(I46
I47
I48
tp1467
a(I30
I27
I47
tp1468
a(I43
I45
I47
tp1469
a(I27
I24
I43
tp1470
a(dp1471
g19
F700.0
sg20
F626.0
sg21
F77.0
sg22
F520.0
sg23
F0.0
sg24
F77.0
stp1472
sVE
p1473
((dp1474
I0
(F77.0000000001
F-7.600000000010001e-09
tp1475
sI1
(F77.0000001402
F699.9999999848
tp1476
sI2
(F208.000000125
F123.999999793
tp1477
sI3
(F208.00000028036777
F426.9999998758
tp1478
sI4
(F208.0000002736
F302.9999998137
tp1479
sI5
(F208.0000002885
F575.9999998965
tp1480
sI6
(F454.0000002432
F302.9999996376
tp1481
sI7
(F454.0000002996
F426.9999996829
tp1482
sI8
(F525.0000002103
F699.9999998428
tp1483
sI9
(F525.0000002308
F575.9999997904
tp1484
sI10
(F535.0
F0.0
tp1485
sI11
(F535.0000001375
F123.9999994126
tp1486
sI13
(F492.75091600984496
F575.9999998011938
tp1487
sI14
(F501.8514853551145
F123.99999945116176
tp1488
s(lp1489
(I3
I1
I5
tp1490
a(I4
I1
I3
tp1491
a(I0
I1
I4
tp1492
a(I7
I4
I3
tp1493
a(I6
I4
I7
tp1494
a(I0
I4
I2
tp1495
a(I0
I2
I10
tp1496
a(I1
I5
I8
tp1497
a(I13
I8
I9
tp1498
a(I13
I8
I5
tp1499
a(I14
I10
I2
tp1500
a(I14
I10
I11
tp1501
a(dp1502
g19
F700.0
sg20
F568.0
sg21
F77.0
sg22
F458.0
sg23
F0.0
sg24
F77.0
stp1503
sVD
p1504
((dp1505
I0
(F77.0000000001
F-7.600000000010001e-09
tp1506
sI1
(F77.0000001402
F699.9999999848
tp1507
sI2
(F205.0000000248
F122.9999999592
tp1508
sI3
(F205.0000000578
F576.9999999796
tp1509
sI4
(F339.0
F0.0
tp1510
sI5
(F339.0
F577.0
tp1511
sI6
(F339.0000000372
F122.9999998986
tp1512
sI7
(F339.0000002103
F699.9999998986
tp1513
sI8
(F386.0312500511
F126.7499998459875
tp1514
sI9
(F386.03125103365
F573.2499993069438
tp1515
sI10
(F411.937500012375
F5.8749992603125
tp1516
sI11
(F411.93750027805
F694.124999835625
tp1517
sI12
(F427.1250000695
F137.9999997869375
tp1518
sI13
(F427.1250009571
F561.9999992755875
tp1519
sI14
(F462.28125009465
F156.74999972323124
tp1520
sI15
(F462.2812508708
F543.24999926195
tp1521
sI16
(F477.75000004165
F23.499999189525
tp1522
sI17
(F477.75000033875
F676.499999761625
tp1523
sI18
(F491.5000001288
F182.99999965665
tp1524
sI19
(F491.500000777
F516.99999926425
tp1525
sI20
(F514.46875017355
F215.937499589225
tp1526
sI21
(F514.4687506790875
F484.06249928114374
tp1527
sI22
(F530.875000230175
F254.7499995231125
tp1528
sI23
(F530.875000580125
F445.2499993111625
tp1529
sI24
(F536.4375000862
F52.8749991433
tp1530
sI25
(F536.437500388875
F647.1249996787375
tp1531
sI26
(F540.7187503004375
F299.43749946028123
tp1532
sI27
(F540.718750481875
F400.5624993523375
tp1533
sI28
(F544.0000003861
F349.9999994027
tp1534
sI29
(F588.0000001425
F93.9999991195
tp1535
sI30
(F588.0000004249
F605.9999995891
tp1536
sI31
(F630.00000020475
F145.2499991194
tp1537
sI32
(F630.0000004446
F554.7499994968
tp1538
sI33
(F660.0000002678
F204.9999991433
tp1539
sI34
(F660.0000004464
F494.9999994069
tp1540
sI35
(F678.0000003291
F273.2499991876
tp1541
sI36
(F678.00000042775
F426.749999323
tp1542
sI37
(F684.0000003861
F349.9999992487
tp1543
s(lp1544
(I0
I1
I3
tp1545
a(I5
I3
I7
tp1546
a(I9
I5
I7
tp1547
a(I13
I9
I11
tp1548
a(I19
I15
I25
tp1549
a(I21
I19
I30
tp1550
a(I34
I21
I30
tp1551
a(I0
I3
I2
tp1552
a(I36
I27
I23
tp1553
a(I37
I28
I27
tp1554
a(I35
I26
I37
tp1555
a(I4
I2
I6
tp1556
a(I4
I6
I8
tp1557
a(I4
I8
I10
tp1558
a(I16
I12
I14
tp1559
a(I29
I18
I20
tp1560
a(I24
I14
I18
tp1561
a(I16
I14
I24
tp1562
a(I10
I12
I16
tp1563
a(I8
I12
I10
tp1564
a(I0
I2
I4
tp1565
a(I1
I3
I7
tp1566
a(I7
I9
I11
tp1567
a(I11
I13
I17
tp1568
a(I17
I13
I15
tp1569
a(I17
I15
I25
tp1570
a(I25
I19
I30
tp1571
a(I30
I34
I32
tp1572
a(I34
I23
I36
tp1573
a(I21
I23
I34
tp1574
a(I27
I37
I36
tp1575
a(I28
I26
I37
tp1576
a(I33
I22
I20
tp1577
a(I22
I33
I35
tp1578
a(I26
I22
I35
tp1579
a(I29
I18
I24
tp1580
a(I29
I31
I33
tp1581
a(I20
I29
I33
tp1582
a(dp1583
g19
F700.0
sg20
F720.0
sg21
F77.0
sg22
F607.0
sg23
F0.0
sg24
F77.0
stp1584
sVG
p1585
((dp1586
I0
(F35.0000002816
F350.9999999728
tp1587
sI1
(F41.03125019177813
F272.9687499719781
tp1588
sI2
(F41.06250038660625
F428.56249996394376
tp1589
sI3
(F59.125000122325
F202.874999965125
tp1590
sI4
(F59.25000049925
F498.24999994175
tp1591
sI5
(F89.28125007085937
F140.71874995585938
tp1592
sI6
(F89.56250061716875
F560.0624999025813
tp1593
sI7
(F131.500000035
F86.4999999478
tp1594
sI8
(F132.000000738
F613.9999998428
tp1595
sI9
(F175.0000010974
F352.9999994606
tp1596
sI10
(F178.34375121471874
F403.90624946796873
tp1597
sI11
(F178.5000009641
F300.281249432
tp1598
sI12
(F183.03125001305938
F42.53124994539063
tp1599
sI13
(F184.125000856375
F657.7499997619375
tp1600
sI14
(F188.3750013068125
F449.6249994566125
tp1601
sI15
(F189.0000008386125
F253.12499937959998
tp1602
sI16
(F205.0937513752375
F490.1562494285375
tp1603
sI17
(F206.50000072260625
F211.5312493013
tp1604
sI18
(F228.50000142155
F525.49999938575
tp1605
sI19
(F231.00000061775
F175.499999195
tp1606
sI20
(F241.125000002425
F11.124999951975
tp1607
sI21
(F243.500000966
F688.9999996605
tp1608
sI22
(F258.46875144340623
F554.1562493305812
tp1609
sI23
(F262.1250005306625
F146.40624905995
tp1610
sI24
(F294.8750014390625
F574.6249992653125
tp1611
sI25
(F299.5000004685125
F125.62499889555
tp1612
sI26
(F305.7812499993281
F-7.718750030478125
tp1613
sI27
(F310.125001063125
F707.7499995363125
tp1614
sI28
(F337.718751410975
F586.906249191875
tp1615
sI29
(F343.12500043379373
F113.156248699925
tp1616
sI30
(F377.0
F-14.0
tp1617
sI31
(F384.000001144
F713.9999993872
tp1618
sI32
(F387.0000013616
F590.9999991122
tp1619
sI33
(F393.000000429
F108.9999984712
tp1620
sI34
(F412.0000010578
F244.9999982327
tp1621
sI35
(F412.00000154879996
F350.999998194811
tp1622
sI36
(F438.500000451
F111.74999825
tp1623
sI37
(F438.7500012106125
F711.124999255825
tp1624
sI38
(F439.7499999552875
F-10.125002149875
tp1625
sI39
(F482.7500012804
F580.99999894015
tp1626
sI40
(F489.0000004961
F119.9999979992
tp1627
sI41
(F489.0000010332
F244.9999979504
tp1628
sI42
(F497.0000012663
F702.4999991072
tp1629
sI43
(F508.000000012
F1.4999975664
tp1630
sI44
(F551.2500013117125
F689.374998954525
tp1631
sI45
(F570.7500000922375
F18.624997322175
tp1632
sI46
(F580.0000011592
F550.9999987841
tp1633
sI47
(F594.000001348
F672.999998814
tp1634
sI48
(F617.000000184
F38.9999971664
tp1635
sI49
(F617.000001584
F350.999997228
tp1636
s(lp1637
(I10
I2
I14
tp1638
a(I18
I16
I6
tp1639
a(I13
I21
I22
tp1640
a(I13
I18
I8
tp1641
a(I27
I24
I21
tp1642
a(I18
I6
I8
tp1643
a(I32
I28
I31
tp1644
a(I18
I13
I22
tp1645
a(I16
I4
I6
tp1646
a(I14
I4
I16
tp1647
a(I32
I31
I42
tp1648
a(I39
I32
I42
tp1649
a(I2
I4
I14
tp1650
a(I0
I2
I10
tp1651
a(I0
I10
I9
tp1652
a(I34
I35
I41
tp1653
a(I0
I9
I11
tp1654
a(I43
I40
I48
tp1655
a(I38
I36
I43
tp1656
a(I1
I11
I15
tp1657
a(I38
I33
I36
tp1658
a(I3
I15
I17
tp1659
a(I20
I25
I26
tp1660
a(I5
I17
I7
tp1661
a(I12
I19
I23
tp1662
a(I26
I25
I29
tp1663
a(I20
I23
I25
tp1664
a(I12
I23
I20
tp1665
a(I7
I19
I12
tp1666
a(I17
I19
I7
tp1667
a(I3
I17
I5
tp1668
a(I1
I15
I3
tp1669
a(I0
I11
I1
tp1670
a(I27
I28
I31
tp1671
a(I21
I22
I24
tp1672
a(I27
I24
I28
tp1673
a(I37
I31
I42
tp1674
a(I42
I47
I44
tp1675
a(I42
I39
I47
tp1676
a(I47
I39
I46
tp1677
a(I49
I35
I41
tp1678
a(I48
I41
I40
tp1679
a(I49
I41
I48
tp1680
a(I48
I43
I45
tp1681
a(I40
I36
I43
tp1682
a(I30
I29
I26
tp1683
a(I33
I30
I38
tp1684
a(I33
I29
I30
tp1685
a(dp1686
g19
F728.0
sg20
F664.0
sg21
F35.0
sg22
F582.0
sg23
F-14.0
sg24
F35.0
stp1687
sVF
p1688
((dp1689
I0
(F77.0000000007
F-5.320000000049e-08
tp1690
sI1
(F77.0000005608
F699.9999999392
tp1691
sI2
(F205.0000000006
F-1.2240000000036003e-07
tp1692
sI3
(F205.0000000577
F575.9999999796
tp1693
sI4
(F205.00000010916776
F426.9999999592
tp1694
sI5
(F205.000000152
F302.999999898
tp1695
sI6
(F439.0000001216
F302.9999998248
tp1696
sI7
(F439.0000001284
F426.9999998686
tp1697
sI8
(F508.0
F576.0
tp1698
sI9
(F508.0000006309
F699.9999995437
tp1699
sI11
(F476.6593411394953
F575.99999999789
tp1700
s(lp1701
(I4
I1
I3
tp1702
a(I5
I1
I4
tp1703
a(I0
I1
I5
tp1704
a(I6
I5
I7
tp1705
a(I0
I5
I2
tp1706
a(I7
I4
I5
tp1707
a(I1
I3
I9
tp1708
a(I11
I9
I8
tp1709
a(I11
I9
I3
tp1710
a(dp1711
g19
F700.0
sg20
F525.0
sg21
F77.0
sg22
F431.0
sg23
F0.0
sg24
F77.0
stp1712
sVI
p1713
((dp1714
I0
(F77.0000000001
F-7.600000000010001e-09
tp1715
sI1
(F77.0000001402
F699.9999999848
tp1716
sI2
(F205.0
F0.0
tp1717
sI3
(F205.0000002103
F699.9999999388
tp1718
s(lp1719
(I2
I1
I3
tp1720
a(I0
I1
I2
tp1721
a(dp1722
g19
F700.0
sg20
F282.0
sg21
F77.0
sg22
F128.0
sg23
F0.0
sg24
F77.0
stp1723
sVH
p1724
((dp1725
I0
(F77.0000000005
F-3.800000000025e-08
tp1726
sI1
(F77.0000004206
F699.9999999544
tp1727
sI2
(F205.0000000004
F-2.969965870326647e-08
tp1728
sI3
(F205.0000000912
F302.9999999388
tp1729
sI4
(F205.0000003424
F426.9999998368
tp1730
sI5
(F205.0000004907
F699.9999998572
tp1731
sI6
(F535.0000000001
F-8.300341296983536e-09
tp1732
sI7
(F535.0000000608
F302.9999998932
tp1733
sI8
(F535.0000003852
F426.9999995194
tp1734
sI9
(F535.000000701
F699.999999466
tp1735
sI10
(F663.0
F0.0
tp1736
sI11
(F663.0000007711
F699.9999992718
tp1737
s(lp1738
(I4
I1
I5
tp1739
a(I3
I1
I4
tp1740
a(I0
I1
I3
tp1741
a(I7
I3
I4
tp1742
a(I8
I9
I11
tp1743
a(I7
I4
I8
tp1744
a(I6
I7
I10
tp1745
a(I0
I3
I2
tp1746
a(I11
I8
I7
tp1747
a(I11
I7
I10
tp1748
a(dp1749
g19
F700.0
sg20
F740.0
sg21
F77.0
sg22
F586.0
sg23
F0.0
sg24
F77.0
stp1750
sVK
p1751
((dp1752
I0
(F77.0000000001
F-7.600000000010001e-09
tp1753
sI1
(F77.0000001402
F699.9999999848
tp1754
sI2
(F205.0
F-2.04e-08
tp1755
sI3
(F205.00000021030002
F699.9999999439495
tp1756
sI4
(F230.0000000742
F369.9999999542
tp1757
sI5
(F374.0000001855
F369.9999998135
tp1758
sI6
(F474.0000000001
F-4.730000000001e-08
tp1759
sI7
(F474.0000002103
F699.9999998581
tp1760
sI8
(F618.0
F0.0
tp1761
sI9
(F618.0000002804
F699.9999997532
tp1762
sI11
(F315.0750606460585
F240.99273593258238
tp1763
sI12
(F315.07506067849954
F485.0605326410172
tp1764
sI13
(F205.0000000929954
F309.542483695306
tp1765
sI14
(F205.0000001755821
F584.4387489852091
tp1766
s(lp1767
(I14
I1
I3
tp1768
a(I5
I4
I12
tp1769
a(I5
I7
I9
tp1770
a(I11
I4
I5
tp1771
a(I6
I11
I5
tp1772
a(I12
I5
I7
tp1773
a(I8
I5
I6
tp1774
a(I14
I1
I13
tp1775
a(I13
I0
I1
tp1776
a(I13
I0
I2
tp1777
a(dp1778
g19
F700.0
sg20
F621.0
sg21
F77.0
sg22
F541.0
sg23
F0.0
sg24
F77.0
stp1779
sVJ
p1780
((dp1781
I0
(F-3.000000015
F-75.9999999992
tp1782
sI1
(F6.9999999829
F-172.0000000006
tp1783
sI2
(F23.9999999775
F-76.0000000069
tp1784
sI3
(F43.0
F-172.0
tp1785
sI4
(F48.7499999719
F-71.2500000191
tp1786
sI5
(F64.999999972
F-57.000000032
tp1787
sI6
(F73.99999998125
F-32.2500000438
tp1788
sI7
(F77.0000000035
F3.9999999468
tp1789
sI8
(F77.0000005608
F699.9999999392
tp1790
sI9
(F79.34374971328438
F-169.6562501331844
tp1791
sI10
(F111.3749997414
F-162.6250001766
tp1792
sI11
(F139.09374977514062
F-150.90625020714063
tp1793
sI12
(F162.4999998131
F-134.5000002261
tp1794
sI13
(F181.09374985370937
F-113.53125023412187
tp1795
sI14
(F194.37499989545
F-88.12500023205
tp1796
sI15
(F202.34374993699063
F-58.281250221478125
tp1797
sI16
(F204.999999977
F-24.000000204
tp1798
sI17
(F205.0000006309
F699.9999998164
tp1799
s(lp1800
(I7
I8
I17
tp1801
a(I14
I5
I6
tp1802
a(I14
I10
I5
tp1803
a(I3
I2
I4
tp1804
a(I12
I11
I13
tp1805
a(I11
I10
I14
tp1806
a(I10
I4
I5
tp1807
a(I9
I3
I10
tp1808
a(I3
I4
I10
tp1809
a(I1
I2
I3
tp1810
a(I0
I2
I1
tp1811
a(I16
I7
I6
tp1812
a(I6
I14
I16
tp1813
a(I17
I7
I16
tp1814
a(I16
I14
I15
tp1815
a(I11
I13
I14
tp1816
a(dp1817
g19
F872.0
sg20
F282.0
sg21
F-3.0
sg22
F208.0
sg23
F-172.0
sg24
F-3.0
stp1818
sVM
p1819
((dp1820
I0
(F44.0000000006
F-2.5800000000359998e-08
tp1821
sI1
(F141.0000004907
F699.999999902
tp1822
sI2
(F177.0000000005
F-2.1194093960027028e-08
tp1823
sI3
(F237.0000001876
F467.9999999056
tp1824
sI4
(F246.0000005608
F699.999999804
tp1825
sI5
(F417.0000000444
F146.9999998752
tp1826
sI6
(F417.0000003438
F380.9999996256
tp1827
sI7
(F587.000000701
F699.999999414
tp1828
sI8
(F596.000000094
F468.999999881
tp1829
sI9
(F656.0000000001
F-4.605906040332968e-09
tp1830
sI10
(F692.0000007711
F699.9999992399
tp1831
sI11
(F789.0
F0.0
tp1832
sI13
(F648.918357012752
F55.354842752959726
tp1833
sI14
(F184.0775412868501
F55.2048218315542
tp1834
sI15
(F370.16479817751684
F468.3709324815019
tp1835
sI16
(F498.2704087344082
F533.5015302428567
tp1836
s(lp1837
(I3
I1
I4
tp1838
a(I0
I1
I3
tp1839
a(I15
I3
I4
tp1840
a(I8
I7
I10
tp1841
a(I5
I3
I6
tp1842
a(I5
I6
I8
tp1843
a(I16
I8
I7
tp1844
a(I3
I6
I15
tp1845
a(I10
I8
I11
tp1846
a(I13
I11
I9
tp1847
a(I13
I11
I8
tp1848
a(I14
I0
I3
tp1849
a(I14
I0
I2
tp1850
a(I16
I8
I6
tp1851
a(dp1852
g19
F700.0
sg20
F833.0
sg21
F44.0
sg22
F745.0
sg23
F0.0
sg24
F44.0
stp1853
sVL
p1854
((dp1855
I0
(F77.0000000001
F-7.600000000010001e-09
tp1856
sI1
(F77.0000001402
F699.9999999848
tp1857
sI2
(F205.00000005
F123.9999999184
tp1858
sI3
(F205.0000002103
F699.9999999388
tp1859
sI4
(F493.0
F0.0
tp1860
sI5
(F493.0000000625
F123.999999754
tp1861
s(lp1862
(I2
I1
I3
tp1863
a(I0
I1
I2
tp1864
a(I4
I2
I5
tp1865
a(I0
I2
I4
tp1866
a(dp1867
g19
F700.0
sg20
F500.0
sg21
F77.0
sg22
F416.0
sg23
F0.0
sg24
F77.0
stp1868
sVO
p1869
((dp1870
I0
(F35.0000000376
F186.9999999932
tp1871
sI1
(F35.0000001542
F512.9999999898
tp1872
sI2
(F175.0000000726
F240.9999999478
tp1873
sI3
(F175.000000092
F458.9999999652
tp1874
sI4
(F227.9999999987
F-14.0000000227
tp1875
sI5
(F228.000000286
F713.9999999092
tp1876
sI6
(F281.000000044
F108.999999888
tp1877
sI7
(F281.0000000592
F590.999999972
tp1878
sI8
(F479.0
F591.0
tp1879
sI9
(F479.000000055
F108.999999761
tp1880
sI10
(F532.0
F-14.0
tp1881
sI11
(F532.0000003575
F713.9999997345
tp1882
sI12
(F585.0000001452
F240.9999996496
tp1883
sI13
(F585.000000322
F458.9999995912
tp1884
sI14
(F725.0000001316
F186.9999994932
tp1885
sI15
(F725.0000003084
F512.9999995656
tp1886
s(lp1887
(I7
I1
I5
tp1888
a(I0
I1
I3
tp1889
a(I8
I7
I5
tp1890
a(I12
I13
I15
tp1891
a(I0
I3
I2
tp1892
a(I9
I12
I14
tp1893
a(I0
I2
I6
tp1894
a(I4
I6
I10
tp1895
a(I0
I6
I4
tp1896
a(I1
I3
I7
tp1897
a(I5
I8
I11
tp1898
a(I15
I8
I13
tp1899
a(I11
I8
I15
tp1900
a(I15
I12
I14
tp1901
a(I9
I6
I10
tp1902
a(I14
I9
I10
tp1903
a(dp1904
g19
F728.0
sg20
F760.0
sg21
F35.0
sg22
F690.0
sg23
F-14.0
sg24
F35.0
stp1905
sVN
p1906
((dp1907
I0
(F77.0000000004
F-3.0400000000160004e-08
tp1908
sI1
(F77.0000003505
F699.999999962
tp1909
sI2
(F203.0000004206
F699.9999998788
tp1910
sI3
(F205.00000000030002
F-2.3363471971190286e-08
tp1911
sI4
(F205.0000000962
F479.9999999592
tp1912
sI5
(F502.0000001743
F247.9999996493
tp1913
sI6
(F502.0000005608
F699.9999995992
tp1914
sI7
(F525.0000000000999
F-5.772151898763238e-09
tp1915
sI8
(F630.0
F0.0
tp1916
sI9
(F630.0000006309
F699.9999994339
tp1917
sI11
(F410.5659698833307
F171.65104520840444
tp1918
sI12
(F301.32930077569034
F551.3550372711791
tp1919
sI13
(F205.00000001345984
F65.86803141333465
tp1920
sI14
(F502.00000051129945
F642.110582509945
tp1921
sI15
(F400.97025156097516
F186.04462269520997
tp1922
sI16
(F310.454753433245
F537.5600385865413
tp1923
sI17
(F205.0000000149858
F73.50585921710889
tp1924
sI18
(F502.00000050516076
F634.9315460889317
tp1925
s(lp1926
(I4
I1
I2
tp1927
a(I0
I1
I4
tp1928
a(I16
I4
I12
tp1929
a(I14
I6
I9
tp1930
a(I11
I15
I5
tp1931
a(I7
I5
I8
tp1932
a(I11
I5
I7
tp1933
a(I0
I17
I13
tp1934
a(I2
I4
I12
tp1935
a(I9
I5
I8
tp1936
a(I13
I3
I0
tp1937
a(I14
I9
I18
tp1938
a(I15
I5
I16
tp1939
a(I16
I4
I15
tp1940
a(I17
I0
I4
tp1941
a(I18
I9
I5
tp1942
a(dp1943
g19
F700.0
sg20
F707.0
sg21
F77.0
sg22
F553.0
sg23
F0.0
sg24
F77.0
stp1944
sVQ
p1945
((dp1946
I0
(F35.0000004914
F349.9999999524
tp1947
sI1
(F41.03125035542813
F272.4062499479594
tp1948
sI2
(F41.031250642890626
F427.5937499399531
tp1949
sI3
(F59.12500024435
F202.62499993025
tp1950
sI4
(F59.1250007974
F497.374999907
tp1951
sI5
(F89.28125015582188
F140.65624990289064
tp1952
sI6
(F89.28125095258437
F559.3437498499219
tp1953
sI7
(F131.5000000875
F86.4999998695
tp1954
sI8
(F131.5000011061
F613.4999997651
tp1955
sI9
(F175.0000000726
F240.9999999478
tp1956
sI10
(F175.000000092
F458.9999999652
tp1957
sI11
(F183.21875003917813
F42.53124983600313
tp1958
sI12
(F183.21875125109062
F657.4687496537844
tp1959
sI13
(F241.8750000097
F11.1249998073
tp1960
sI14
(F241.87500137975
F688.87499951825
tp1961
sI15
(F281.000000044
F108.999999888
tp1962
sI16
(F281.0000000592
F590.999999972
tp1963
sI17
(F307.4687499952969
F-7.718750214528125
tp1964
sI18
(F307.46875148830935
F707.7187493564156
tp1965
sI19
(F369.500000055
F108.99999981575
tp1966
sI20
(F379.9999999922
F-14.0000002274
tp1967
sI21
(F380.000001573
F713.9999991662
tp1968
sI22
(F415.7500002475
F205.2499995023
tp1969
sI23
(F419.43750029485625
F225.81249945603125
tp1970
sI24
(F421.93750020549373
F185.81249953696874
tp1971
sI25
(F433.0000003479
F247.4999993952
tp1972
sI26
(F436.87499999540626
F-10.1875002179375
tp1973
sI27
(F437.000000066
F108.9999997384
tp1974
sI28
(F438.0000001685
F167.499999563
tp1975
sI29
(F451.93750039848436
F264.6562493235937
tp1976
sI30
(F452.53125163005313
F707.7187489614781
tp1977
sI31
(F453.18750008559687
F121.28124968346874
tp1978
sI32
(F453.6875001363781
F150.53124959258125
tp1979
sI33
(F458.7500001089
F135.1249996338
tp1980
sI34
(F471.7500004362
F271.6249992468
tp1981
sI35
(F479.0
F591.0
tp1982
sI36
(F489.5000000009
F1.2499998046
tp1983
sI37
(F492.4375004579906
F268.40624916455624
tp1984
sI38
(F514.0000004608
F254.9999990766
tp1985
sI39
(F518.1250016557
F688.8749987589
tp1986
sI40
(F534.9375004622938
F242.31249898551874
tp1987
sI41
(F537.8750000063937
F20.3124998389375
tp1988
sI42
(F553.7500004845
F241.2499988945
tp1989
sI43
(F570.4375005309063
F251.81249880418125
tp1990
sI44
(F576.7812516461719
F657.4687485605468
tp1991
sI45
(F582.0000000096
F46.9999998838
tp1992
sI46
(F585.000000605
F273.9999987152
tp1993
sI47
(F585.000000826275
F358.2499986568
tp1994
sI48
(F585.000001104
F458.9999985984
tp1995
sI49
(F628.5000015977
F613.4999983685
tp1996
sI50
(F650.9999999991
F-10.000000065
tp1997
sI51
(F663.0000004454
F129.9999977492
tp1998
sI52
(F670.7187515129282
F559.3437481917593
tp1999
sI53
(F690.125000594
F178.9999977258875
tp2000
sI54
(F700.87500139545
F497.37499804035
tp2001
sI55
(F709.5000007456
F231.9999977328
tp2002
sI56
(F718.9687512429218
F427.5937479178906
tp2003
sI57
(F721.125000899
F288.9999977676125
tp2004
sI58
(F725.0
F79.0
tp2005
sI59
(F725.000001053
F349.999997828
tp2006
s(lp2007
(I10
I2
I4
tp2008
a(I8
I16
I10
tp2009
a(I12
I14
I16
tp2010
a(I14
I18
I16
tp2011
a(I10
I4
I6
tp2012
a(I16
I8
I12
tp2013
a(I30
I18
I21
tp2014
a(I10
I6
I8
tp2015
a(I35
I16
I18
tp2016
a(I0
I2
I10
tp2017
a(I35
I30
I39
tp2018
a(I52
I35
I44
tp2019
a(I54
I48
I52
tp2020
a(I48
I35
I52
tp2021
a(I47
I48
I56
tp2022
a(I57
I47
I56
tp2023
a(I46
I47
I57
tp2024
a(I43
I46
I55
tp2025
a(I29
I34
I37
tp2026
a(I29
I37
I38
tp2027
a(I25
I29
I22
tp2028
a(I29
I38
I40
tp2029
a(I23
I25
I22
tp2030
a(I22
I29
I32
tp2031
a(I28
I22
I32
tp2032
a(I41
I31
I33
tp2033
a(I36
I27
I31
tp2034
a(I20
I19
I27
tp2035
a(I0
I10
I9
tp2036
a(I5
I9
I15
tp2037
a(I17
I15
I19
tp2038
a(I13
I15
I17
tp2039
a(I11
I15
I13
tp2040
a(I5
I15
I11
tp2041
a(I5
I11
I7
tp2042
a(I1
I9
I3
tp2043
a(I9
I5
I3
tp2044
a(I0
I9
I1
tp2045
a(I18
I35
I30
tp2046
a(I35
I44
I39
tp2047
a(I44
I52
I49
tp2048
a(I54
I48
I56
tp2049
a(I56
I57
I59
tp2050
a(I57
I46
I55
tp2051
a(I53
I43
I42
tp2052
a(I29
I32
I40
tp2053
a(I53
I42
I51
tp2054
a(I55
I43
I53
tp2055
a(I42
I40
I33
tp2056
a(I51
I42
I45
tp2057
a(I22
I24
I28
tp2058
a(I33
I40
I32
tp2059
a(I45
I42
I33
tp2060
a(I45
I33
I41
tp2061
a(I50
I51
I45
tp2062
a(I58
I51
I50
tp2063
a(I31
I36
I41
tp2064
a(I27
I20
I36
tp2065
a(I36
I20
I26
tp2066
a(I19
I17
I20
tp2067
a(dp2068
g19
F728.0
sg20
F760.0
sg21
F35.0
sg22
F690.0
sg23
F-14.0
sg24
F35.0
stp2069
sVP
p2070
((dp2071
I0
(F77.0000000003
F-2.2800000000090003e-08
tp2072
sI1
(F77.0000002804
F699.9999999696
tp2073
sI2
(F205.0000000002
F-4.080000000004e-08
tp2074
sI3
(F205.0000000231
F229.9999999796
tp2075
sI4
(F205.0000000594
F592.9999999796
tp2076
sI5
(F205.0000000702
F349.9999999592
tp2077
sI6
(F275.0000003505
F699.999999863
tp2078
sI7
(F310.0
F593.0
tp2079
sI8
(F313.0000001053
F349.9999999064
tp2080
sI9
(F330.0
F230.0
tp2081
sI10
(F345.9062508292375
F591.3124995171313
tp2082
sI11
(F346.8750004194
F697.999999792475
tp2083
sI12
(F373.87500014325
F357.12499985085
tp2084
sI13
(F375.625000763425
F586.2499995129875
tp2085
sI14
(F399.156250694575
F577.8124995222125
tp2086
sI15
(F404.5000004851
F691.99999971755
tp2087
sI16
(F411.0000004598
F240.999999221
tp2088
sI17
(F414.50000018975
F378.49999979325
tp2089
sI18
(F416.5000006237
F565.99999954295
tp2090
sI19
(F427.84375023780626
F395.34374974389374
tp2091
sI20
(F437.3750002928625
F417.3749996945375
tp2092
sI21
(F437.87500053125
F530.249999563125
tp2093
sI22
(F443.093750356475
F444.593749646325
tp2094
sI23
(F445.0000004302
F476.9999996004
tp2095
sI24
(F450.00000046215
F255.7499991918
tp2096
sI25
(F452.750000545
F680.2499996386
tp2097
sI26
(F489.0000004743
F277.9999991704
tp2098
sI27
(F496.5000005958
F660.99999955405
tp2099
sI28
(F524.1250004982
F310.374999163
tp2100
sI29
(F532.250000633625
F632.62499946875
tp2101
sI30
(F551.50000053475
F355.49999917425
tp2102
sI31
(F556.50000065395
F593.49999938895
tp2103
sI32
(F569.125000578025
F411.874999204625
tp2104
sI33
(F570.37500065205
F542.37499931675
tp2105
sI34
(F575.0000006227
F477.9999992538
tp2106
s(lp2107
(I5
I1
I4
tp2108
a(I7
I4
I6
tp2109
a(I0
I1
I5
tp2110
a(I13
I10
I11
tp2111
a(I14
I13
I25
tp2112
a(I0
I5
I3
tp2113
a(I8
I3
I5
tp2114
a(I21
I18
I29
tp2115
a(I9
I3
I8
tp2116
a(I33
I21
I29
tp2117
a(I33
I23
I21
tp2118
a(I9
I8
I12
tp2119
a(I9
I12
I16
tp2120
a(I28
I17
I19
tp2121
a(I32
I20
I22
tp2122
a(I16
I12
I17
tp2123
a(I28
I19
I30
tp2124
a(I26
I16
I17
tp2125
a(I0
I3
I2
tp2126
a(I1
I4
I6
tp2127
a(I6
I7
I11
tp2128
a(I11
I7
I10
tp2129
a(I11
I25
I15
tp2130
a(I11
I13
I25
tp2131
a(I25
I14
I18
tp2132
a(I25
I29
I27
tp2133
a(I25
I18
I29
tp2134
a(I29
I33
I31
tp2135
a(I23
I22
I34
tp2136
a(I32
I20
I30
tp2137
a(I32
I34
I22
tp2138
a(I23
I34
I33
tp2139
a(I19
I30
I20
tp2140
a(I17
I26
I28
tp2141
a(I16
I24
I26
tp2142
a(dp2143
g19
F700.0
sg20
F596.0
sg21
F77.0
sg22
F498.0
sg23
F0.0
sg24
F77.0
stp2144
sVS
p2145
((dp2146
I0
(F38.000001515
F503.999999889
tp2147
sI1
(F41.8750016891125
F543.8749998732875
tp2148
sI2
(F45.00000132385
F455.4999998724
tp2149
sI3
(F48.0000000152
F36.9999999812
tp2150
sI4
(F53.500001864
F581.499999832
tp2151
sI5
(F61.0000011704
F416.999999832
tp2152
sI6
(F63.000000092
F182.999999969
tp2153
sI7
(F72.8750020389875
F616.8749997628125
tp2154
sI8
(F88.25000000555
F17.499999973825
tp2155
sI9
(F89.00000104355
F385.4999997624
tp2156
sI10
(F100.0000022134
F649.9999996634
tp2157
sI11
(F101.375000093225
F154.374999939775
tp2158
sI12
(F121.0000009425
F361.499999688
tp2159
sI13
(F135.1875023765
F677.9999995303438
tp2160
sI14
(F137.7500008834375
F352.374999658125
tp2161
sI15
(F143.0000000004
F0.9999999716
tp2162
sI16
(F152.50000009205
F130.49999989395
tp2163
sI17
(F162.0000008232
F341.9999996136
tp2164
sI18
(F168.0000026469
F517.9999991482999
tp2165
sI19
(F176.75000252395
F484.3749990861
tp2166
sI20
(F177.62500276625
F552.249999116875
tp2167
sI21
(F178.7500025164
F697.9999993601
tp2168
sI22
(F202.0000007498
F324.9999995377
tp2169
sI23
(F203.00000244065
F459.49999892939996
tp2170
sI24
(F206.5000028224
F574.99999899305
tp2171
sI25
(F208.249999999075
F-10.250000020725
tp2172
sI26
(F213.8750000923
F114.3749998297
tp2173
sI27
(F218.75000070345
F318.74999952095
tp2174
sI28
(F230.6875026307
F709.9999991501562
tp2175
sI29
(F245.0000006531
F309.9999994876
tp2176
sI30
(F247.000002373975
F438.6249986716
tp2177
sI31
(F248.125002826
F587.7499988138
tp2178
sI32
(F275.75000060125
F299.6249994505
tp2179
sI33
(F280.0
F-14.0
tp2180
sI34
(F283.000000099
F108.9999997462
tp2181
sI35
(F291.000002717
F713.999998898
tp2182
sI36
(F296.00000055765
F292.4999994395
tp2183
sI37
(F296.0000027871
F591.9999986135
tp2184
sI38
(F309.000002299
F416.999998306
tp2185
sI39
(F314.00000051525
F285.2499994366
tp2186
sI40
(F337.68750011475
F113.7499996633125
tp2187
sI41
(F338.00000046835
F274.4999994271
tp2188
sI42
(F341.6250022848
F406.9999980925
tp2189
sI43
(F342.5625027096875
F588.0624984288124
tp2190
sI44
(F343.62499993065
F-10.5000025011625
tp2191
sI45
(F356.875002771925
F709.7499986120874
tp2192
sI46
(F361.1250004214
F262.3749994238
tp2193
sI47
(F365.50000228
F398.99999792234996
tp2194
sI48
(F376.500000378
F250.99999943675
tp2195
sI49
(F376.7500001419
F127.999999586675
tp2196
sI50
(F388.62500226925
F390.24999775177497
tp2197
sI51
(F392.250002597625
F576.249998239375
tp2198
sI52
(F398.0000003136
F222.9999994442
tp2199
sI53
(F398.5000000072
F-2.86200000005184e-06
tp2200
sI54
(F400.1875001833
F151.749999520975
tp2201
sI55
(F408.0000002418
F184.9999994709
tp2202
sI56
(F419.0000022361
F377.9999975338
tp2203
sI57
(F420.500002792
F696.999998322
tp2204
sI58
(F443.5000001180375
F15.624996858249999
tp2205
sI59
(F445.062502453275
F556.562498046125
tp2206
sI60
(F449.25000218775
F363.62499731049996
tp2207
sI61
(F472.00000213195
F348.4999971269
tp2208
sI62
(F475.125002789025
F679.2499980560875
tp2209
sI63
(F477.5000002485
F34.499996664499996
tp2210
sI64
(F501.000002279
F528.99999785
tp2211
sI65
(F503.2500004010625
F57.124996534474995
tp2212
sI66
(F511.5000019313
F310.4999968349
tp2213
sI67
(F514.0000027762
F659.9999978454
tp2214
sI68
(F523.500000578
F83.999996447
tp2215
sI69
(F529.2500018081
F285.99999667202496
tp2216
sI70
(F537.8750007562625
F111.8749964029375
tp2217
sI71
(F541.5000016544
F257.4999965408
tp2218
sI72
(F546.0000009141
F137.49999640299998
tp2219
sI73
(F551.0000012415
F189.99999642499998
tp2220
s(lp2221
(I0
I1
I4
tp2222
a(I10
I4
I7
tp2223
a(I20
I4
I10
tp2224
a(I21
I10
I13
tp2225
a(I28
I35
I21
tp2226
a(I31
I24
I21
tp2227
a(I24
I10
I21
tp2228
a(I43
I37
I45
tp2229
a(I62
I45
I57
tp2230
a(I20
I10
I24
tp2231
a(I31
I21
I35
tp2232
a(I18
I4
I20
tp2233
a(I43
I45
I51
tp2234
a(I0
I4
I18
tp2235
a(I0
I18
I19
tp2236
a(I5
I19
I12
tp2237
a(I12
I23
I22
tp2238
a(I50
I42
I47
tp2239
a(I29
I30
I38
tp2240
a(I50
I38
I42
tp2241
a(I60
I61
I56
tp2242
a(I39
I38
I50
tp2243
a(I48
I50
I61
tp2244
a(I69
I71
I66
tp2245
a(I71
I61
I66
tp2246
a(I73
I72
I71
tp2247
a(I55
I52
I71
tp2248
a(I52
I61
I71
tp2249
a(I46
I50
I48
tp2250
a(I41
I50
I46
tp2251
a(I39
I50
I41
tp2252
a(I36
I38
I39
tp2253
a(I32
I38
I36
tp2254
a(I29
I38
I32
tp2255
a(I65
I63
I68
tp2256
a(I23
I30
I22
tp2257
a(I22
I29
I27
tp2258
a(I30
I29
I22
tp2259
a(I53
I49
I63
tp2260
a(I14
I12
I17
tp2261
a(I12
I22
I17
tp2262
a(I33
I40
I53
tp2263
a(I19
I23
I12
tp2264
a(I5
I12
I9
tp2265
a(I0
I19
I5
tp2266
a(I0
I5
I2
tp2267
a(I35
I37
I45
tp2268
a(I35
I31
I37
tp2269
a(I62
I51
I59
tp2270
a(I62
I45
I51
tp2271
a(I67
I62
I59
tp2272
a(I67
I59
I64
tp2273
a(I61
I56
I50
tp2274
a(I61
I48
I52
tp2275
a(I72
I63
I68
tp2276
a(I72
I71
I55
tp2277
a(I70
I72
I68
tp2278
a(I55
I54
I72
tp2279
a(I54
I49
I63
tp2280
a(I72
I54
I63
tp2281
a(I63
I53
I58
tp2282
a(I40
I34
I33
tp2283
a(I49
I40
I53
tp2284
a(I53
I33
I44
tp2285
a(I34
I25
I33
tp2286
a(I26
I15
I25
tp2287
a(I34
I26
I25
tp2288
a(I16
I8
I15
tp2289
a(I26
I16
I15
tp2290
a(I11
I3
I8
tp2291
a(I16
I11
I8
tp2292
a(I11
I6
I3
tp2293
a(dp2294
g19
F728.0
sg20
F580.0
sg21
F38.0
sg22
F513.0
sg23
F-14.0
sg24
F38.0
stp2295
sVR
p2296
((dp2297
I0
(F77.0000000005
F-3.800000000025e-08
tp2298
sI1
(F77.0000004206
F699.9999999544
tp2299
sI2
(F205.0000000004
F-2.892537313451728e-08
tp2300
sI3
(F205.0000000594
F592.9999999796
tp2301
sI4
(F205.0000000762
F379.9999999592
tp2302
sI5
(F205.0000000783
F259.9999999388
tp2303
sI6
(F299.0000001143
F379.9999999106
tp2304
sI7
(F304.0
F593.0
tp2305
sI8
(F333.0000004907
F699.9999997676
tp2306
sI9
(F335.0000000522
F259.9999999332
tp2307
sI10
(F336.3125001531
F381.749999865875
tp2308
sI11
(F339.93750082936873
F591.4062495254875
tp2309
sI12
(F367.250000194
F386.999999816875
tp2310
sI13
(F369.7500007639125
F586.624999520625
tp2311
sI14
(F389.484375558275
F696.8437496892125
tp2312
sI15
(F391.81250023805
F395.7499997655125
tp2313
sI16
(F393.4375006955875
F578.656249529075
tp2314
sI17
(F410.0000002863
F407.9999997137
tp2315
sI18
(F411.00000062535
F567.499999549
tp2316
sI19
(F432.5000003546
F442.2499996548
tp2317
sI20
(F432.750000536125
F535.12499956825
tp2318
sI21
(F438.4375006195375
F687.3749996063062
tp2319
sI22
(F440.000000441
F488.9999996049
tp2320
sI23
(F455.0000005605
F293.9999991374
tp2321
sI24
(F479.8593756725937
F671.5937495211406
tp2322
sI25
(F480.0000000001
F-9.429104477675682e-09
tp2323
sI26
(F505.5000005994
F331.9999990919
tp2324
sI27
(F513.75000071555
F649.499999435975
tp2325
sI28
(F540.1093757465125
F621.0937493530688
tp2326
sI29
(F543.0000006409
F375.9999990786
tp2327
sI30
(F558.9375007635875
F586.3749992746813
tp2328
sI31
(F566.2500006896
F429.9999990956
tp2329
sI32
(F570.2343757648813
F545.3437492030719
tp2330
sI33
(F574.0000007485
F497.9999991405
tp2331
sI34
(F613.0
F0.0
tp2332
sI36
(F496.63137830372773
F216.5340177195683
tp2333
s(lp2334
(I4
I1
I3
tp2335
a(I0
I1
I4
tp2336
a(I13
I11
I14
tp2337
a(I0
I4
I5
tp2338
a(I6
I5
I4
tp2339
a(I16
I13
I14
tp2340
a(I9
I5
I6
tp2341
a(I28
I18
I21
tp2342
a(I32
I20
I28
tp2343
a(I9
I6
I10
tp2344
a(I9
I10
I12
tp2345
a(I9
I12
I23
tp2346
a(I12
I15
I23
tp2347
a(I29
I17
I19
tp2348
a(I33
I31
I32
tp2349
a(I23
I15
I17
tp2350
a(I29
I19
I31
tp2351
a(I23
I17
I29
tp2352
a(I9
I36
I25
tp2353
a(I0
I5
I2
tp2354
a(I3
I7
I8
tp2355
a(I1
I3
I8
tp2356
a(I8
I7
I11
tp2357
a(I8
I11
I14
tp2358
a(I14
I16
I21
tp2359
a(I21
I16
I18
tp2360
a(I21
I28
I24
tp2361
a(I24
I28
I27
tp2362
a(I18
I20
I28
tp2363
a(I32
I22
I31
tp2364
a(I22
I32
I20
tp2365
a(I28
I32
I30
tp2366
a(I19
I31
I22
tp2367
a(I29
I23
I26
tp2368
a(I36
I25
I34
tp2369
a(I36
I9
I23
tp2370
a(dp2371
g19
F700.0
sg20
F626.0
sg21
F77.0
sg22
F536.0
sg23
F0.0
sg24
F77.0
stp2372
sVU
p2373
((dp2374
I0
(F69.0000000308
F152.9999999864
tp2375
sI1
(F69.00000009052337
F229.81249997959998
tp2376
sI2
(F69.0000001257
F313.2499999728
tp2377
sI3
(F69.00000020215624
F403.312499966
tp2378
sI4
(F69.0000003006
F499.9999999592
tp2379
sI5
(F70.0000003835125
F546.8749999517
tp2380
sI6
(F73.0000004708
F587.4999999424
tp2381
sI7
(F78.0000005605875
F621.8749999307
tp2382
sI8
(F85.000000651
F649.999999916
tp2383
sI9
(F94.0000007401625
F671.8749998977
tp2384
sI10
(F105.0000008262
F687.4999998752
tp2385
sI11
(F118.0000009072375
F696.8749998479
tp2386
sI12
(F133.0000009814
F699.9999998152
tp2387
sI13
(F161.00000103476563
F688.84374976
tp2388
sI14
(F181.0000010502
F655.374999712
tp2389
sI15
(F193.00000102100938
F599.5937496736
tp2390
sI16
(F197.0000005126
F231.9999995688
tp2391
sI17
(F197.00000061470936
F291.7187495884
tp2392
sI18
(F197.00000072175
F359.874999608
tp2393
sI19
(F197.00000083119062
F436.4687496276
tp2394
sI20
(F197.0000009405
F521.4999996472
tp2395
sI21
(F214.9999999987
F-14.0000000214
tp2396
sI22
(F266.000000253
F108.9999993905
tp2397
sI23
(F452.000000264
F108.9999989176
tp2398
sI24
(F503.0
F-14.0
tp2399
sI25
(F521.0000005825
F231.9999987
tp2400
sI26
(F521.0000007655033
F291.718748648
tp2401
sI27
(F521.0000009743625
F359.874998596
tp2402
sI28
(F521.0000012249125
F436.468748544
tp2403
sI29
(F521.00000151525
F521.499998492
tp2404
sI30
(F525.0000018017812
F599.593748428
tp2405
sI31
(F537.0000020347625
F655.3749983384
tp2406
sI32
(F557.0000022075
F688.8437482208
tp2407
sI33
(F585.0000023133
F699.9999980727999
tp2408
sI34
(F600.000002372775
F696.8749979634
tp2409
sI35
(F613.00000240975
F687.499997858
tp2410
sI36
(F624.00000242235
F671.8749977571999
tp2411
sI37
(F633.0000024087
F649.9999976616
tp2412
sI38
(F640.000002366925
F621.8749975718
tp2413
sI39
(F645.00000229515
F587.4999974884
tp2414
sI40
(F648.0000021915
F546.874997412
tp2415
sI41
(F649.000000693
F152.999997084
tp2416
sI42
(F649.000001015575
F229.8124971488
tp2417
sI43
(F649.000001351275
F313.2499972136
tp2418
sI44
(F649.0000016981126
F403.3124972784
tp2419
sI45
(F649.0000020541
F499.9999973432
tp2420
s(lp2421
(I17
I1
I2
tp2422
a(I18
I2
I3
tp2423
a(I5
I20
I4
tp2424
a(I6
I7
I5
tp2425
a(I13
I8
I9
tp2426
a(I11
I12
I10
tp2427
a(I12
I9
I10
tp2428
a(I13
I9
I12
tp2429
a(I14
I8
I13
tp2430
a(I7
I8
I14
tp2431
a(I7
I14
I15
tp2432
a(I7
I15
I5
tp2433
a(I15
I20
I5
tp2434
a(I20
I19
I4
tp2435
a(I19
I3
I4
tp2436
a(I18
I3
I19
tp2437
a(I17
I2
I18
tp2438
a(I16
I1
I17
tp2439
a(I34
I35
I33
tp2440
a(I35
I36
I33
tp2441
a(I37
I31
I32
tp2442
a(I37
I38
I31
tp2443
a(I38
I30
I31
tp2444
a(I40
I30
I38
tp2445
a(I40
I29
I30
tp2446
a(I45
I29
I40
tp2447
a(I0
I1
I16
tp2448
a(I43
I27
I44
tp2449
a(I42
I26
I43
tp2450
a(I41
I25
I42
tp2451
a(I23
I25
I41
tp2452
a(I0
I16
I22
tp2453
a(I21
I22
I24
tp2454
a(I0
I22
I21
tp2455
a(I32
I36
I33
tp2456
a(I32
I37
I36
tp2457
a(I38
I40
I39
tp2458
a(I28
I44
I45
tp2459
a(I29
I28
I45
tp2460
a(I28
I27
I44
tp2461
a(I27
I26
I43
tp2462
a(I26
I25
I42
tp2463
a(I23
I22
I24
tp2464
a(I41
I23
I24
tp2465
a(dp2466
g19
F714.0
sg20
F718.0
sg21
F69.0
sg22
F580.0
sg23
F-14.0
sg24
F69.0
stp2467
sVT
p2468
((dp2469
I0
(F15.0000002885
F575.999999993
tp2470
sI1
(F15.0000004206
F699.9999999916
tp2471
sI2
(F213.0000000003
F-6.360000000009e-08
tp2472
sI4
(F341.0000000002
F-6.800000000004e-08
tp2473
sI5
(F341.00000005769994
F575.999999997355
tp2474
sI6
(F539.0
F576.0
tp2475
sI7
(F539.0000004907
F699.9999996234
tp2476
sI9
(F213.00000023080005
F575.9999999956451
tp2477
s(lp2478
(I9
I1
I5
tp2479
a(I5
I7
I6
tp2480
a(I1
I7
I5
tp2481
a(I0
I1
I9
tp2482
a(I4
I5
I9
tp2483
a(I9
I4
I2
tp2484
a(dp2485
g19
F700.0
sg20
F554.0
sg21
F15.0
sg22
F524.0
sg23
F0.0
sg24
F15.0
stp2486
sVW
p2487
((dp2488
I0
(F10.0000004206
F699.9999999946
tp2489
sI1
(F143.0000004907
F699.9999999953584
tp2490
sI2
(F207.0000000005
F-1.0300000000025e-07
tp2491
sI3
(F283.0000001632
F202.9999997744
tp2492
sI4
(F328.0000000004
F-1.3080000000016002e-07
tp2493
sI5
(F439.0000006308999
F699.9999999970462
tp2494
sI6
(F483.0000001404
F466.9999998554
tp2495
sI7
(F528.000000701
F699.9999999975537
tp2496
sI8
(F639.0000000002
F-1.2760000000004e-07
tp2497
sI9
(F690.0000002387
F215.9999992421
tp2498
sI10
(F752.0000000001
F-7.510000000001001e-08
tp2499
sI11
(F824.0000008412
F699.9999999992416
tp2500
sI12
(F957.0
F700.0
tp2501
sI14
(F568.1459837581513
F212.10785636964206
tp2502
sI15
(F396.58099267503985
F206.62789373489352
tp2503
sI16
(F386.6008731752855
F533.06175461865
tp2504
sI17
(F583.0954981885341
F535.3936977891387
tp2505
sI18
(F279.5371940086174
F215.29296165739026
tp2506
sI19
(F805.5394462969198
F633.321579293408
tp2507
sI20
(F161.976824637633
F632.6322740862032
tp2508
sI21
(F286.6922882041258
F214.7632507465829
tp2509
sI22
(F291.5062653242216
F230.10008807085458
tp2510
s(lp2511
(I17
I5
I7
tp2512
a(I14
I6
I17
tp2513
a(I8
I9
I10
tp2514
a(I14
I9
I8
tp2515
a(I2
I3
I4
tp2516
a(I12
I9
I10
tp2517
a(I15
I22
I6
tp2518
a(I15
I3
I4
tp2519
a(I16
I6
I17
tp2520
a(I17
I16
I5
tp2521
a(I17
I14
I9
tp2522
a(I18
I2
I3
tp2523
a(I18
I2
I0
tp2524
a(I19
I12
I11
tp2525
a(I19
I12
I9
tp2526
a(I20
I0
I1
tp2527
a(I20
I0
I18
tp2528
a(I21
I15
I3
tp2529
a(I22
I15
I21
tp2530
a(I22
I6
I16
tp2531
a(dp2532
g19
F700.0
sg20
F963.0
sg21
F10.0
sg22
F947.0
sg23
F0.0
sg24
F10.0
stp2533
sVV
p2534
((dp2535
I0
(F2.103e-07
F700.0000000003
tp2536
sI1
(F133.00000028040012
F700.000000000239
tp2537
sI2
(F252.0000000002
F-5.020000000004e-08
tp2538
sI3
(F329.000000085
F168.999999836
tp2539
sI4
(F408.0000000001
F-4.070000000001e-08
tp2540
sI5
(F522.0000004206
F700.0000000000605
tp2541
sI6
(F654.0
F700.0
tp2542
s(lp2543
(I0
I1
I3
tp2544
a(I2
I3
I4
tp2545
a(I0
I3
I2
tp2546
a(I6
I5
I3
tp2547
a(I6
I3
I4
tp2548
a(dp2549
g19
F700.0
sg20
F657.0
sg21
F0.0
sg22
F654.0
sg23
F0.0
sg24
F0.0
stp2550
sVY
p2551
((dp2552
I0
(F-6.9999996495
F700.000000004
tp2553
sI1
(F129.0000004206
F700.0000000031112
tp2554
sI2
(F235.0000000003
F-7.020000000009e-08
tp2555
sI3
(F235.0000001244
F309.9999999064
tp2556
sI4
(F299.0000002975
F423.9999997914
tp2557
sI5
(F363.0000000002
F-7.240000000004e-08
tp2558
sI6
(F363.0000000311
F309.9999999638
tp2559
sI7
(F469.0000005608
F700.0000000008889
tp2560
sI8
(F605.0
F700.0
tp2561
s(lp2562
(I3
I1
I4
tp2563
a(I3
I4
I6
tp2564
a(I0
I1
I3
tp2565
a(I2
I3
I5
tp2566
a(I6
I7
I4
tp2567
a(I8
I7
I6
tp2568
a(I6
I3
I5
tp2569
a(dp2570
g19
F700.0
sg20
F598.0
sg21
F-7.0
sg22
F612.0
sg23
F0.0
sg24
F-7.0
stp2571
sVX
p2572
((dp2573
I0
(F-0.9999999996
F7.9999999984e-10
tp2574
sI1
(F10.0000004206
F699.9999999946
tp2575
sI2
(F146.0000000003
F6.133333332106752e-10
tp2576
sI3
(F158.0000004907
F699.9999998901
tp2577
sI4
(F246.000000175
F348.9999998775
tp2578
sI5
(F311.0000000516
F256.999999938
tp2579
sI6
(F320.000000364
F453.9999997448
tp2580
sI7
(F385.0000004004
F362.9999995776
tp2581
sI8
(F468.0000006309
F699.9999995797
tp2582
sI9
(F481.00000000009993
F1.8793650789891305e-10
tp2583
sI10
(F615.000000701
F699.999999386
tp2584
sI11
(F629.0
F0.0
tp2585
s(lp2586
(I4
I1
I3
tp2587
a(I4
I3
I6
tp2588
a(I7
I4
I6
tp2589
a(I5
I4
I7
tp2590
a(I2
I4
I5
tp2591
a(I9
I5
I7
tp2592
a(I0
I4
I2
tp2593
a(I8
I7
I10
tp2594
a(I8
I6
I7
tp2595
a(I7
I9
I11
tp2596
a(dp2597
g19
F700.0
sg20
F627.0
sg21
F-1.0
sg22
F630.0
sg23
F0.0
sg24
F-1.0
stp2598
sVZ
p2599
((dp2600
I0
(F8.0000000004
F-2.80000000016e-09
tp2601
sI1
(F53.0000003462
F575.9999999688
tp2602
sI2
(F53.0000004907
F699.9999999636
tp2603
sI3
(F219.0000000125
F123.9999999782
tp2604
sI4
(F330.0000002885
F575.9999998355
tp2605
sI5
(F496.0000000003
F-1.4850000000009e-07
tp2606
sI6
(F496.000000025
F123.999999901
tp2607
sI7
(F541.0
F700.0
tp2608
sI9
(F386.17402563666644
F423.0442197511886
tp2609
sI10
(F162.82597459988563
F276.95578032166395
tp2610
s(lp2611
(I9
I4
I7
tp2612
a(I5
I3
I6
tp2613
a(I0
I3
I5
tp2614
a(I2
I1
I4
tp2615
a(I2
I4
I7
tp2616
a(I4
I10
I9
tp2617
a(I10
I3
I9
tp2618
a(I10
I3
I0
tp2619
a(dp2620
g19
F700.0
sg20
F548.0
sg21
F8.0
sg22
F533.0
sg23
F0.0
sg24
F8.0
stp2621
sV_
p2622
((dp2623
I0
(F-1.0000000129
F-129.9999999998
tp2624
sI1
(F-1.000000007
F-35.9999999996
tp2625
sI2
(F558.9999999895
F-36.0000001674
tp2626
sI3
(F559.0
F-130.0
tp2627
s(lp2628
(I0
I1
I2
tp2629
a(I0
I2
I3
tp2630
a(dp2631
g19
F94.0
sg20
F558.0
sg21
F-1.0
sg22
F560.0
sg23
F-130.0
sg24
F-1.0
stp2632
sVa
p2633
((dp2634
I0
(F21.0000001974
F139.999999972
tp2635
sI1
(F28.3750002814375
F186.6249999589375
tp2636
sI2
(F31.3750001028625
F78.1249999605125
tp2637
sI3
(F50.500000364
F226.4999999208
tp2638
sI4
(F62.5000000378
F30.4999999262
tp2639
sI5
(F64.0000012555
F463.9999998299
tp2640
sI6
(F75.0000009464
F362.9999998076
tp2641
sI7
(F84.37500044115
F258.4999998582625
tp2642
sI8
(F109.1250000012375
F0.1249998810625
tp2643
sI9
(F127.0000005085
F281.4999997732
tp2644
sI10
(F147.75000098125
F391.499999633125
tp2645
sI11
(F151.000000073
F144.999999925
tp2646
sI12
(F155.0000013944
F496.9999995688
tp2647
sI13
(F155.18750007185
F118.7499999074875
tp2648
sI14
(F162.500000073
F181.4999999354
tp2649
sI15
(F165.999999991
F-10.000000165
tp2650
sI16
(F167.7500000707
F99.999999883275
tp2651
sI17
(F188.6875000718
F88.74999984985
tp2652
sI18
(F197.000000063
F208.9999999412
tp2653
sI19
(F212.0000009648
F400.9999994936
tp2654
sI20
(F213.4374999951625
F-6.37500019119375
tp2655
sI21
(F217.500000589
F308.99999958865
tp2656
sI22
(F218.0000000774
F84.9999998047
tp2657
sI23
(F246.0000014761
F507.9999992895
tp2658
sI24
(F246.5000000456
F226.9999999509
tp2659
sI25
(F252.375000913675
F396.2499994218375
tp2660
sI26
(F254.7500000044
F4.499999797
tp2661
sI27
(F263.250000095
F93.99999973775
tp2662
sI28
(F279.5000008426
F381.9999993873
tp2663
sI29
(F288.42187651757814
F504.8593741377344
tp2664
sI30
(F289.9375000165375
F22.62499979774375
tp2665
sI31
(F295.375000751275
F356.7499993818125
tp2666
sI32
(F302.00000064
F318.999999398
tp2667
sI33
(F303.0
F121.0
tp2668
sI34
(F303.0000000236
F234.9999999698
tp2669
sI35
(F319.0000000294
F47.9999998092
tp2670
sI36
(F325.18750153895627
F495.43749899501876
tp2671
sI37
(F337.6250000118125
F22.6249998316875
tp2672
sI38
(F356.29687653835
F479.73437386305
tp2673
sI39
(F362.5000000022
F4.4999998554
tp2674
sI40
(F381.750001513875
F457.749998743525
tp2675
sI41
(F393.6249999983875
F-6.3750001177875
tp2676
sI42
(F401.54687646364687
F429.4843736381406
tp2677
sI43
(F415.6875013857813
F394.93749854859374
tp2678
sI44
(F424.17187627839377
F354.10937347658125
tp2679
sI45
(F427.0000006574
F171.9999983812
tp2680
sI46
(F427.0000011396
F306.9999984238
tp2681
sI47
(F429.000000504075
F128.2499983308
tp2682
sI48
(F430.9999999982
F-10.000000086
tp2683
sI49
(F435.000000424
F104.999998264
tp2684
sI50
(F448.000000394625
F95.24999816729999
tp2685
sI51
(F471.0000003906
F91.999998026
tp2686
sI52
(F475.9999999991
F-10.0000000475
tp2687
sI53
(F487.0
F92.0
tp2688
s(lp2689
(I7
I1
I3
tp2690
a(I11
I1
I7
tp2691
a(I25
I19
I23
tp2692
a(I18
I14
I9
tp2693
a(I28
I25
I36
tp2694
a(I31
I28
I42
tp2695
a(I14
I7
I9
tp2696
a(I44
I31
I42
tp2697
a(I44
I42
I43
tp2698
a(I18
I21
I24
tp2699
a(I46
I32
I44
tp2700
a(I24
I32
I34
tp2701
a(I9
I21
I18
tp2702
a(I11
I7
I14
tp2703
a(I0
I1
I11
tp2704
a(I35
I33
I49
tp2705
a(I49
I50
I41
tp2706
a(I0
I11
I13
tp2707
a(I4
I13
I16
tp2708
a(I4
I16
I15
tp2709
a(I20
I17
I22
tp2710
a(I48
I41
I52
tp2711
a(I41
I35
I49
tp2712
a(I30
I27
I35
tp2713
a(I39
I37
I35
tp2714
a(I20
I22
I30
tp2715
a(I20
I30
I26
tp2716
a(I15
I17
I20
tp2717
a(I16
I17
I15
tp2718
a(I4
I15
I8
tp2719
a(I0
I13
I4
tp2720
a(I0
I4
I2
tp2721
a(I5
I10
I12
tp2722
a(I5
I6
I10
tp2723
a(I12
I19
I23
tp2724
a(I12
I10
I19
tp2725
a(I23
I36
I29
tp2726
a(I23
I25
I36
tp2727
a(I36
I42
I38
tp2728
a(I38
I42
I40
tp2729
a(I36
I28
I42
tp2730
a(I31
I32
I44
tp2731
a(I32
I21
I24
tp2732
a(I46
I32
I34
tp2733
a(I34
I33
I45
tp2734
a(I46
I34
I45
tp2735
a(I45
I33
I47
tp2736
a(I47
I33
I49
tp2737
a(I35
I33
I27
tp2738
a(I30
I27
I22
tp2739
a(I41
I52
I50
tp2740
a(I52
I51
I50
tp2741
a(I53
I51
I52
tp2742
a(I35
I39
I41
tp2743
a(dp2744
g19
F518.0
sg20
F498.0
sg21
F21.0
sg22
F466.0
sg23
F-10.0
sg24
F21.0
stp2745
sVc
p2746
((dp2747
I0
(F28.0000002
F248.9999999784
tp2748
sI1
(F32.00000013776875
F195.8124999783
tp2749
sI2
(F32.00000027286875
F302.1874999721
tp2750
sI3
(F44.00000008895
F147.2499999742
tp2751
sI4
(F44.00000035175
F350.749999957
tp2752
sI5
(F64.00000005215625
F103.3124999685
tp2753
sI6
(F64.00000043525625
F394.68749993069997
tp2754
sI7
(F92.000000026
F63.9999999636
tp2755
sI8
(F92.000000522
F433.9999998908
tp2756
sI9
(F127.1875000097875
F31.62499996214375
tp2757
sI10
(F127.1875006075875
F466.37499983595626
tp2758
sI11
(F155.000000625
F248.999999615
tp2759
sI12
(F163.3750004836
F184.999999577825
tp2760
sI13
(F163.3750007536
F312.9999996103
tp2761
sI14
(F168.7500000019
F8.49999996645
tp2762
sI15
(F168.7500006867
F489.49999976515
tp2763
sI16
(F188.5000003672
F134.99999949375
tp2764
sI17
(F188.5000008372
F362.99999956875
tp2765
sI18
(F216.6874999995625
F-5.37500002156875
tp2766
sI19
(F216.6875007565625
F503.37499967646875
tp2767
sI20
(F228.3750002905
F102.74999936335
tp2768
sI21
(F228.37500087175
F395.249999499775
tp2769
sI22
(F271.0
F-10.0
tp2770
sI23
(F271.0000008144
F507.999999568
tp2771
sI24
(F281.0000002697
F91.999999188
tp2772
sI25
(F281.0000008547
F405.999999412
tp2773
sI26
(F346.75000030975
F102.24999896275
tp2774
sI27
(F346.7500007935
F395.7499993085
tp2775
sI28
(F354.000000000825
F-0.7500011649
tp2776
sI29
(F354.000000849575
F498.7499993999
tp2777
sI30
(F410.0000004154
F132.9999987321
tp2778
sI31
(F410.0000006954
F364.9999992229
tp2779
sI32
(F421.0000000896
F26.999998656
tp2780
sI33
(F421.0000008496
F470.999999244
tp2781
s(lp2782
(I13
I2
I4
tp2783
a(I8
I4
I6
tp2784
a(I10
I15
I8
tp2785
a(I15
I17
I8
tp2786
a(I13
I4
I8
tp2787
a(I21
I15
I19
tp2788
a(I17
I15
I21
tp2789
a(I25
I23
I29
tp2790
a(I19
I25
I21
tp2791
a(I13
I8
I17
tp2792
a(I27
I25
I29
tp2793
a(I11
I2
I13
tp2794
a(I0
I2
I11
tp2795
a(I0
I11
I12
tp2796
a(I3
I12
I5
tp2797
a(I9
I16
I20
tp2798
a(I22
I18
I24
tp2799
a(I18
I20
I24
tp2800
a(I14
I9
I18
tp2801
a(I9
I20
I18
tp2802
a(I5
I16
I9
tp2803
a(I5
I9
I7
tp2804
a(I12
I16
I5
tp2805
a(I0
I12
I3
tp2806
a(I0
I3
I1
tp2807
a(I23
I19
I25
tp2808
a(I29
I27
I33
tp2809
a(I33
I27
I31
tp2810
a(I26
I28
I32
tp2811
a(I30
I26
I32
tp2812
a(I28
I24
I22
tp2813
a(I26
I24
I28
tp2814
a(dp2815
g19
F518.0
sg20
F448.0
sg21
F28.0
sg22
F393.0
sg23
F-10.0
sg24
F28.0
stp2816
sVb
p2817
((dp2818
I0
(F57.0000000004
F-2.2400000000160002e-08
tp2819
sI1
(F57.0000003755
F749.999999972
tp2820
sI2
(F173.0000000003
F-5.1600000000089996e-08
tp2821
sI3
(F175.0000000058
F27.9999999652
tp2822
sI4
(F175.00000015
F248.9999998956
tp2823
sI5
(F181.0000003332
F474.999999874
tp2824
sI6
(F181.0000004506
F749.999999892
tp2825
sI7
(F182.125000129325
F183.7499998732125
tp2826
sI8
(F182.125000157625
F314.2499999094375
tp2827
sI9
(F203.500000108
F133.999999838
tp2828
sI10
(F203.500000146
F363.999999919
tp2829
sI11
(F219.5937501049625
F115.62499980326562
tp2830
sI12
(F219.5937501150125
F382.37499993442185
tp2831
sI13
(F233.25000000005
F-0.500000023225
tp2832
sI14
(F235.2500004006
F499.7499998126
tp2833
sI15
(F239.3750000793
F395.499999952325
tp2834
sI16
(F239.3750001035
F102.499999761625
tp2835
sI17
(F262.8437500404375
F403.37499997381565
tp2836
sI18
(F262.8437501051875
F94.62499971197188
tp2837
sI19
(F290.0
F406.0
tp2838
sI20
(F290.0000001116
F91.9999996532
tp2839
sI21
(F298.0
F-10.0
tp2840
sI22
(F298.0000004581
F507.9999997327
tp2841
sI23
(F342.625000134875
F102.7499995558875
tp2842
sI24
(F342.625000752875
F395.2499993509125
tp2843
sI25
(F352.374999989575
F-5.3437508433
tp2844
sI26
(F352.37500050434375
F503.343749648625
tp2845
sI27
(F382.5000001904
F134.9999994659
tp2846
sI28
(F382.5000006552
F362.9999993133
tp2847
sI29
(F400.5000000221375
F8.62499908115
tp2848
sI30
(F400.5000005394125
F489.37499956055
tp2849
sI31
(F407.625000279
F184.9999993900625
tp2850
sI32
(F407.6250005338
F312.9999993087375
tp2851
sI33
(F416.0000004
F248.999999336
tp2852
sI34
(F442.37500007239373
F31.906249028975
tp2853
sI35
(F442.3750005605125
F466.09374947035
tp2854
sI36
(F478.00000013755
F64.4999989983
tp2855
sI37
(F478.00000056485
F433.4999993799
tp2856
sI38
(F506.4375002099375
F103.968748989125
tp2857
sI39
(F506.4375005530438
F394.0312492923875
tp2858
sI40
(F526.7500002828625
F147.874999001075
tp2859
sI41
(F526.7500005266875
F350.124999211375
tp2860
sI42
(F538.9375003549937
F196.2187490317125
tp2861
sI43
(F538.93750048445
F301.7812491393
tp2862
sI44
(F543.000000425
F248.9999990786
tp2863
s(lp2864
(I5
I1
I6
tp2865
a(I8
I1
I5
tp2866
a(I10
I5
I12
tp2867
a(I0
I1
I8
tp2868
a(I0
I8
I4
tp2869
a(I24
I19
I22
tp2870
a(I3
I4
I7
tp2871
a(I28
I24
I35
tp2872
a(I32
I28
I37
tp2873
a(I3
I7
I9
tp2874
a(I41
I32
I37
tp2875
a(I33
I32
I43
tp2876
a(I3
I9
I11
tp2877
a(I31
I33
I44
tp2878
a(I3
I11
I16
tp2879
a(I38
I31
I40
tp2880
a(I3
I16
I13
tp2881
a(I38
I27
I31
tp2882
a(I16
I18
I13
tp2883
a(I18
I20
I13
tp2884
a(I34
I23
I27
tp2885
a(I0
I4
I3
tp2886
a(I21
I20
I23
tp2887
a(I34
I27
I38
tp2888
a(I29
I23
I34
tp2889
a(I13
I20
I21
tp2890
a(I0
I3
I2
tp2891
a(I21
I23
I29
tp2892
a(I5
I8
I10
tp2893
a(I15
I5
I12
tp2894
a(I14
I5
I15
tp2895
a(I14
I19
I22
tp2896
a(I14
I15
I17
tp2897
a(I14
I17
I19
tp2898
a(I22
I30
I26
tp2899
a(I22
I24
I30
tp2900
a(I30
I24
I35
tp2901
a(I35
I28
I37
tp2902
a(I37
I41
I39
tp2903
a(I41
I32
I43
tp2904
a(I43
I33
I44
tp2905
a(I44
I40
I42
tp2906
a(I44
I31
I40
tp2907
a(I34
I36
I38
tp2908
a(I29
I21
I25
tp2909
a(dp2910
g19
F760.0
sg20
F571.0
sg21
F57.0
sg22
F486.0
sg23
F-10.0
sg24
F57.0
stp2911
sVe
p2912
((dp2913
I0
(F28.0000005
F248.999999946
tp2914
sI1
(F32.0312506349875
F301.37499993483436
tp2915
sI2
(F32.40625037394375
F195.81249994032814
tp2916
sI3
(F44.1250007711
F349.499999905125
tp2917
sI4
(F45.62500026685
F147.249999919675
tp2918
sI5
(F64.2812509070625
F393.3749998544531
tp2919
sI6
(F67.65625017733124
F103.31249988668438
tp2920
sI7
(F92.5000010416
F432.9999997804
tp2921
sI8
(F98.500000104
F63.999999844
tp2922
sI9
(F127.65625116703124
F465.81249968335936
tp2923
sI10
(F137.4687500489375
F31.624999795296876
tp2924
sI11
(F157.0000000224
F222.9999999844
tp2925
sI12
(F168.62500127465
F489.24999956417497
tp2926
sI13
(F170.0000000706
F351.9999999662
tp2927
sI14
(F171.93750009999374
F332.31249994871877
tp2928
sI15
(F175.1250000334
F165.999999965175
tp2929
sI16
(F183.8750000133
F8.499999743975
tp2930
sI17
(F187.7500001277
F318.2499999253
tp2931
sI18
(F209.5000000378
F124.99999993745
tp2932
sI19
(F215.40625136164374
F503.3124994211031
tp2933
sI20
(F217.43750015540624
F309.8124998917813
tp2934
sI21
(F226.0000000407
F405.9999999775
tp2935
sI22
(F237.7187499943125
F-5.375000307734375
tp2936
sI23
(F254.8750000405
F100.24999989845
tp2937
sI24
(F261.0000001848
F306.999999844
tp2938
sI25
(F268.0000014252
F507.9999992524
tp2939
sI26
(F298.9999999892
F-10.0000003576
tp2940
sI27
(F305.18750021730625
F309.43749978706876
tp2941
sI28
(F306.0000000465
F91.9999998475
tp2942
sI29
(F313.8750014653156
F504.2812490926625
tp2943
sI30
(F318.0
F406.0
tp2944
sI31
(F336.7500002542
F316.7499997314
tp2945
sI32
(F342.5000000576
F94.9999997951
tp2946
sI33
(F355.500001482375
F493.1249989365
tp2947
sI34
(F355.68750029694377
F328.93749968078123
tp2948
sI35
(F362.000000347
F345.999999639
tp2949
sI36
(F384.0000000735
F103.9999997319
tp2950
sI37
(F388.25000000055
F-0.500000425975
tp2951
sI38
(F392.87500147414687
F474.5312487851875
tp2952
sI39
(F425.0000000946
F117.2499996608
tp2953
sI40
(F426.0000014384
F448.49999864
tp2954
sI41
(F453.12500137723436
F416.34374850798747
tp2955
sI42
(F460.0000001206
F132.9999995869
tp2956
sI43
(F466.000000029
F27.999999535
tp2957
sI44
(F472.500001293275
F379.37499839689997
tp2958
sI45
(F480.0
F223.0
tp2959
sI46
(F484.12500118507813
F337.5937483090625
tp2960
sI47
(F488.0000010512
F290.9999982468
tp2961
sI49
(F320.22777627634025
F222.99999999228345
tp2962
sI50
(F209.84042566961662
F222.99999998695205
tp2963
s(lp2964
(I5
I1
I3
tp2965
a(I7
I21
I13
tp2966
a(I9
I12
I7
tp2967
a(I12
I19
I21
tp2968
a(I14
I1
I5
tp2969
a(I21
I7
I12
tp2970
a(I29
I19
I25
tp2971
a(I21
I19
I29
tp2972
a(I13
I5
I7
tp2973
a(I30
I21
I29
tp2974
a(I14
I5
I13
tp2975
a(I11
I1
I14
tp2976
a(I40
I30
I38
tp2977
a(I11
I14
I17
tp2978
a(I11
I17
I50
tp2979
a(I50
I20
I24
tp2980
a(I49
I27
I31
tp2981
a(I45
I31
I47
tp2982
a(I2
I1
I11
tp2983
a(I49
I24
I27
tp2984
a(I49
I31
I45
tp2985
a(I26
I32
I37
tp2986
a(I2
I11
I15
tp2987
a(I6
I15
I8
tp2988
a(I16
I18
I23
tp2989
a(I22
I23
I26
tp2990
a(I16
I23
I22
tp2991
a(I8
I18
I16
tp2992
a(I8
I16
I10
tp2993
a(I15
I18
I8
tp2994
a(I2
I15
I6
tp2995
a(I2
I6
I4
tp2996
a(I0
I1
I2
tp2997
a(I29
I38
I33
tp2998
a(I29
I30
I38
tp2999
a(I35
I44
I40
tp3000
a(I40
I44
I41
tp3001
a(I30
I35
I40
tp3002
a(I46
I35
I34
tp3003
a(I47
I34
I31
tp3004
a(I34
I47
I46
tp3005
a(I44
I35
I46
tp3006
a(I36
I37
I43
tp3007
a(I39
I36
I43
tp3008
a(I42
I39
I43
tp3009
a(I26
I28
I23
tp3010
a(I28
I26
I32
tp3011
a(I36
I32
I37
tp3012
a(I50
I24
I49
tp3013
a(I50
I20
I17
tp3014
a(dp3015
g19
F518.0
sg20
F515.0
sg21
F28.0
sg22
F460.0
sg23
F-10.0
sg24
F28.0
stp3016
sVd
p3017
((dp3018
I0
(F28.0000003
F248.9999999676
tp3019
sI1
(F32.06250021694063
F196.21874996583125
tp3020
sI2
(F32.06250039361562
F301.7812499596188
tp3021
sI3
(F44.250000148875
F147.87499995675
tp3022
sI4
(F44.250000491575
F350.12499993945
tp3023
sI5
(F64.56250009447187
F103.96874994279375
tp3024
sI6
(F64.56250059254687
F394.03124990465625
tp3025
sI7
(F93.0000000524
F64.4999999264
tp3026
sI8
(F93.0000006952
F433.4999998528
tp3027
sI9
(F128.62500002303437
F31.9062499106625
tp3028
sI10
(F128.6250007940594
F466.0937497830375
tp3029
sI11
(F155.00000009999997
F248.99999978793642
tp3030
sI12
(F163.375000093
F184.9999999188125
tp3031
sI13
(F163.3750000942
F312.9999999512875
tp3032
sI14
(F170.500000005775
F8.6249998983
tp3033
sI15
(F170.500000882675
F489.3749996949
tp3034
sI16
(F188.5000000728
F362.9999999625
tp3035
sI17
(F188.5000000816
F134.9999998875
tp3036
sI18
(F218.62499999782813
F-5.3437501088125
tp3037
sI19
(F218.62500095825314
F503.3437495865125
tp3038
sI20
(F228.375000039625
F395.2499999772625
tp3039
sI21
(F228.375000072625
F102.7499998408375
tp3040
sI22
(F272.9999999964
F-10.0000001088
tp3041
sI23
(F273.000001018
F507.999999456
tp3042
sI24
(F281.0
F406.0
tp3043
sI25
(F281.0000000744
F91.999999776
tp3044
sI26
(F308.1562500860625
F94.62499972355937
tp3045
sI27
(F308.1562507683125
F403.3749994164031
tp3046
sI28
(F331.6250001035
F102.499999669375
tp3047
sI29
(F331.6250007137
F395.499999404875
tp3048
sI30
(F335.750001051575
F499.749999297025
tp3049
sI31
(F337.00000000015
F-0.5000001008
tp3050
sI32
(F351.4062501282875
F115.62499961455312
tp3051
sI33
(F351.4062506517375
F382.3749994043094
tp3052
sI34
(F367.500000162
F133.9999995602
tp3053
sI35
(F367.500000584
F363.9999994136
tp3054
sI36
(F388.875000240175
F183.7499994957625
tp3055
sI37
(F388.875000472875
F314.2499994181875
tp3056
sI38
(F390.0000010472
F474.9999991442
tp3057
sI39
(F390.0000017273
F749.9999991053
tp3058
sI40
(F395.0000000058
F27.9999999212
tp3059
sI41
(F396.00000035
F248.999999447
tp3060
sI42
(F397.0000000001
F-3.9600000000009996e-08
tp3061
sI43
(F514.0
F0.0
tp3062
sI44
(F514.0000018024
F749.9999987688
tp3063
s(lp3064
(I0
I2
I4
tp3065
a(I8
I4
I6
tp3066
a(I10
I15
I8
tp3067
a(I15
I16
I8
tp3068
a(I13
I4
I8
tp3069
a(I23
I15
I19
tp3070
a(I16
I15
I20
tp3071
a(I24
I23
I30
tp3072
a(I15
I23
I20
tp3073
a(I13
I8
I16
tp3074
a(I0
I4
I13
tp3075
a(I0
I13
I11
tp3076
a(I0
I11
I12
tp3077
a(I40
I28
I32
tp3078
a(I31
I26
I28
tp3079
a(I22
I25
I31
tp3080
a(I3
I12
I5
tp3081
a(I9
I17
I21
tp3082
a(I22
I18
I25
tp3083
a(I18
I21
I25
tp3084
a(I14
I9
I18
tp3085
a(I9
I21
I18
tp3086
a(I5
I17
I9
tp3087
a(I5
I9
I7
tp3088
a(I12
I17
I5
tp3089
a(I0
I12
I3
tp3090
a(I0
I3
I1
tp3091
a(I39
I38
I44
tp3092
a(I30
I27
I29
tp3093
a(I23
I20
I24
tp3094
a(I30
I24
I27
tp3095
a(I38
I30
I29
tp3096
a(I38
I29
I33
tp3097
a(I35
I38
I33
tp3098
a(I37
I38
I35
tp3099
a(I41
I38
I37
tp3100
a(I43
I38
I41
tp3101
a(I40
I41
I36
tp3102
a(I41
I40
I43
tp3103
a(I34
I32
I40
tp3104
a(I36
I34
I40
tp3105
a(I44
I38
I43
tp3106
a(I28
I31
I40
tp3107
a(I43
I40
I42
tp3108
a(I26
I25
I31
tp3109
a(dp3110
g19
F760.0
sg20
F571.0
sg21
F28.0
sg22
F486.0
sg23
F-10.0
sg24
F28.0
stp3111
sVg
p3112
((dp3113
I0
(F23.9999999192
F-102.0000000184
tp3114
sI1
(F27.749999908715626
F-131.406250018725
tp3115
sI2
(F29.1249999386875
F-69.1250000253125
tp3116
sI3
(F34.0000006864
F310.9999999274
tp3117
sI4
(F37.375000810246874
F351.2812499163375
tp3118
sI5
(F38.81250055059375
F261.1874999205937
tp3119
sI6
(F38.999999905425
F-158.6250000228
tp3120
sI7
(F44.4999999615
F-39.5000000435
tp3121
sI8
(F47.5000009339
F388.1249998884
tp3122
sI9
(F53.2500004375
F217.7499998955
tp3123
sI10
(F57.749999908671874
F-183.656250028375
tp3124
sI11
(F61.0000001162
F81.999999916
tp3125
sI12
(F64.125000155625
F102.7499999053125
tp3126
sI13
(F64.37500105632813
F421.5312498415625
tp3127
sI14
(F70.1249999866625
F-13.1250000760375
tp3128
sI15
(F72.2500000559
F41.999999907375
tp3129
sI16
(F73.5000001952
F120.999999884
tp3130
sI17
(F77.31250034520625
F180.68749985500625
tp3131
sI18
(F83.9999999178
F-206.5000000332
tp3132
sI19
(F88.0000011765
F451.49999977379997
tp3133
sI20
(F89.125000234175
F136.7499998501875
tp3134
sI21
(F106.0000000132
F9.999999874
tp3135
sI22
(F111.0000002718
F149.999999802
tp3136
sI23
(F117.49999993264062
F-225.53125003495
tp3137
sI24
(F117.56250128849062
F476.21874968528124
tp3138
sI25
(F126.9999999555
F-90.000000063
tp3139
sI26
(F131.312499973025
F-68.437500052125
tp3140
sI27
(F135.374999928825
F-119.625000080625
tp3141
sI28
(F144.249999985375
F-49.750000042975
tp3142
sI29
(F145.0000001248
F310.9999999424
tp3143
sI30
(F150.8750001067625
F354.8749999550375
tp3144
sI31
(F150.8750001340625
F267.1249999250625
tp3145
sI32
(F152.25000138565
F493.8749995765
tp3146
sI33
(F157.999999952375
F-239.1250000314
tp3147
sI34
(F160.49999990095
F-142.50000011165
tp3148
sI35
(F165.8124999934125
F-33.9375000329625
tp3149
sI36
(F168.5000000779
F388.4999999665
tp3150
sI37
(F168.5000001407
F233.4999998995
tp3151
sI38
(F173.00000052
F102.99999914
tp3152
sI39
(F179.875000455175
F88.24999908773749
tp3153
sI40
(F184.000000588
F118.9999991033
tp3154
sI41
(F192.06250146585938
F504.4687494459187
tp3155
sI42
(F195.999999998
F-21.0000000195
tp3156
sI43
(F197.3750000410875
F409.8749999803625
tp3157
sI44
(F197.3750001491875
F212.1249998625375
tp3158
sI45
(F200.5000004108
F77.9999989626
tp3159
sI46
(F200.6249998751
F-157.1250001597
tp3160
sI47
(F205.49999997537188
F-247.28125002045
tp3161
sI48
(F237.0
F417.0
tp3162
sI49
(F237.0000001648
F204.9999998112
tp3163
sI50
(F237.000000552
F113.99999886719999
tp3164
sI51
(F237.000001527
F507.999999292
tp3165
sI52
(F238.6250003763
F69.9999987405875
tp3166
sI53
(F253.9999998551
F-162.0000002277
tp3167
sI54
(F256.0
F-30.0
tp3168
sI55
(F260.0
F-250.0
tp3169
sI56
(F275.8750001918125
F212.1249997526125
tp3170
sI57
(F275.8750006163125
F409.8749995876875
tp3171
sI58
(F281.9062505570969
F117.53124867974063
tp3172
sI59
(F283.624999942175
F-33.125000508725
tp3173
sI60
(F298.0000003402
F61.9999983962
tp3174
sI61
(F299.00000155465
F500.49999907619997
tp3175
sI62
(F304.49999993965
F-36.50000051595
tp3176
sI63
(F304.5000002345
F233.4999996965
tp3177
sI64
(F304.5000005453
F388.4999995751
tp3178
sI65
(F307.7499998435
F-157.50000030675
tp3179
sI66
(F313.78124834991564
F-247.28125209563436
tp3180
sI67
(F321.625000593975
F128.124998525125
tp3181
sI68
(F322.1250002949375
F267.1249996467625
tp3182
sI69
(F322.1250004626375
F354.8749995825375
tp3183
sI70
(F328.0000003744
F310.9999996076
tp3184
sI71
(F344.4999999272
F-46.5000005496
tp3185
sI72
(F347.00000030525
F54.499998096999995
tp3186
sI73
(F350.9999998427
F-144.000000385
tp3187
sI74
(F351.0000015328
F477.99999888
tp3188
sI75
(F356.15625066051564
F145.78124840179686
tp3189
sI76
(F361.124998428375
F-239.125002376825
tp3190
sI77
(F364.1249999199375
F-54.3750005446875
tp3191
sI78
(F377.9999999104
F-65.0000005278
tp3192
sI79
(F379.4999998542
F-122.5000004542
tp3193
sI80
(F385.5000007546
F170.4999983082
tp3194
sI81
(F388.9999998791
F-94.0000005044
tp3195
sI82
(F397.75000163515
F494.499998690725
tp3196
sI83
(F399.0000002296
F39.9999977712
tp3197
sI84
(F402.03124854054687
F-225.5312526067031
tp3198
sI85
(F408.90625086631564
F200.46874824600312
tp3199
sI86
(F409.0000016036
F420.9999984496
tp3200
sI87
(F425.625000986475
F233.874998216575
tp3201
sI88
(F431.5000014469
F369.99999832105
tp3202
sI89
(F435.6562511140469
F270.71874821790936
tp3203
sI90
(F436.4999986848
F-206.5000027872
tp3204
sI91
(F437.0000015651
F421.9999983868
tp3205
sI92
(F439.000001248
F310.999998248
tp3206
sI93
(F449.5000000855
F13.999997443549999
tp3207
sI94
(F458.0000017034
F499.9999984462
tp3208
sI95
(F463.8437488543844
F-182.84375291591562
tp3209
sI96
(F482.0000015228
F421.9999982684
tp3210
sI97
(F483.374999042875
F-155.375002990725
tp3211
sI98
(F483.9999998463
F-27.5000028014
tp3212
sI99
(F490.0000017535
F499.99999828849997
tp3213
sI100
(F495.0937492491281
F-124.09375301397188
tp3214
sI101
(F495.2499996747625
F-56.125002916075
tp3215
sI102
(F498.999999472
F-89.00000298799999
tp3216
s(lp3217
(I19
I36
I30
tp3218
a(I4
I5
I3
tp3219
a(I19
I30
I8
tp3220
a(I17
I9
I5
tp3221
a(I15
I11
I16
tp3222
a(I29
I4
I30
tp3223
a(I4
I8
I30
tp3224
a(I16
I20
I22
tp3225
a(I0
I2
I7
tp3226
a(I31
I17
I5
tp3227
a(I37
I17
I31
tp3228
a(I44
I40
I22
tp3229
a(I37
I22
I17
tp3230
a(I21
I7
I14
tp3231
a(I38
I39
I22
tp3232
a(I69
I64
I86
tp3233
a(I21
I15
I16
tp3234
a(I44
I49
I40
tp3235
a(I22
I40
I38
tp3236
a(I25
I7
I26
tp3237
a(I39
I21
I16
tp3238
a(I88
I70
I69
tp3239
a(I91
I82
I94
tp3240
a(I89
I70
I88
tp3241
a(I42
I21
I39
tp3242
a(I68
I85
I63
tp3243
a(I50
I40
I49
tp3244
a(I28
I21
I35
tp3245
a(I58
I56
I75
tp3246
a(I88
I92
I89
tp3247
a(I75
I56
I63
tp3248
a(I39
I45
I42
tp3249
a(I75
I67
I58
tp3250
a(I72
I62
I60
tp3251
a(I42
I52
I59
tp3252
a(I21
I42
I35
tp3253
a(I26
I21
I28
tp3254
a(I7
I21
I26
tp3255
a(I59
I52
I60
tp3256
a(I77
I83
I78
tp3257
a(I0
I7
I25
tp3258
a(I81
I78
I98
tp3259
a(I100
I98
I102
tp3260
a(I97
I81
I100
tp3261
a(I90
I79
I97
tp3262
a(I6
I25
I27
tp3263
a(I76
I65
I73
tp3264
a(I18
I27
I34
tp3265
a(I18
I34
I23
tp3266
a(I47
I46
I53
tp3267
a(I66
I65
I76
tp3268
a(I55
I53
I65
tp3269
a(I47
I53
I55
tp3270
a(I23
I46
I47
tp3271
a(I23
I47
I33
tp3272
a(I34
I46
I23
tp3273
a(I6
I27
I18
tp3274
a(I6
I18
I10
tp3275
a(I0
I25
I6
tp3276
a(I0
I6
I1
tp3277
a(I19
I13
I8
tp3278
a(I5
I29
I4
tp3279
a(I19
I32
I24
tp3280
a(I16
I12
I11
tp3281
a(I5
I31
I29
tp3282
a(I32
I36
I43
tp3283
a(I32
I19
I36
tp3284
a(I22
I16
I39
tp3285
a(I51
I32
I43
tp3286
a(I43
I48
I51
tp3287
a(I41
I32
I51
tp3288
a(I48
I57
I61
tp3289
a(I51
I48
I61
tp3290
a(I37
I22
I44
tp3291
a(I57
I64
I74
tp3292
a(I61
I57
I74
tp3293
a(I74
I86
I82
tp3294
a(I74
I64
I86
tp3295
a(I86
I69
I88
tp3296
a(I58
I56
I49
tp3297
a(I91
I82
I86
tp3298
a(I94
I96
I99
tp3299
a(I49
I50
I58
tp3300
a(I70
I68
I89
tp3301
a(I94
I91
I96
tp3302
a(I68
I85
I89
tp3303
a(I89
I85
I87
tp3304
a(I63
I75
I85
tp3305
a(I85
I75
I80
tp3306
a(I52
I45
I42
tp3307
a(I59
I42
I54
tp3308
a(I72
I62
I71
tp3309
a(I83
I72
I71
tp3310
a(I60
I59
I62
tp3311
a(I77
I83
I71
tp3312
a(I93
I78
I98
tp3313
a(I93
I83
I78
tp3314
a(I98
I102
I101
tp3315
a(I98
I81
I100
tp3316
a(I81
I79
I97
tp3317
a(I97
I90
I95
tp3318
a(I79
I73
I84
tp3319
a(I79
I84
I90
tp3320
a(I65
I55
I66
tp3321
a(I73
I76
I84
tp3322
a(dp3323
g19
F758.0
sg20
F501.0
sg21
F24.0
sg22
F475.0
sg23
F-250.0
sg24
F24.0
stp3324
sVi
p3325
((dp3326
I0
(F58.0000000001
F-5.70000000001e-09
tp3327
sI1
(F58.00000011538229
F575.9999999942999
tp3328
sI2
(F58.000000100171434
F499.99999998859994
tp3329
sI3
(F58.0000001402
F699.9999999886
tp3330
sI4
(F182.0
F0.0
tp3331
sI5
(F182.0000001731
F576.0
tp3332
sI6
(F182.0000001503
F499.9999999457
tp3333
sI7
(F182.0000002103
F699.9999999457
tp3334
s(lp3335
(I5
I1
I3
tp3336
a(I4
I2
I6
tp3337
a(I0
I2
I4
tp3338
a(I3
I5
I7
tp3339
a(dp3340
g19
F700.0
sg20
F240.0
sg21
F58.0
sg22
F124.0
sg23
F0.0
sg24
F58.0
stp3341
sVh
p3342
((dp3343
I0
(F57.000000001
F-5.6000000001e-08
tp3344
sI1
(F57.0000008261
F749.9999999384
tp3345
sI2
(F181.0000000009
F-4.025396825466407e-08
tp3346
sI3
(F181.0000002912
F362.999999856
tp3347
sI4
(F181.0000006175
F473.999999766
tp3348
sI5
(F181.0000009012
F749.999999784
tp3349
sI6
(F223.000000277375
F395.2499998446
tp3350
sI7
(F233.0000007007
F499.4999996752
tp3351
sI8
(F275.0000002442
F405.9999998356
tp3352
sI9
(F285.0000007635
F507.999999574
tp3353
sI10
(F319.8750001993125
F397.6249998405625
tp3354
sI11
(F334.921875808425
F504.265624465725
tp3355
sI12
(F350.5000001494
F372.4999998602
tp3356
sI13
(F368.1250000992625
F329.8749998898625
tp3357
sI14
(F374.00000000010004
F-1.574603174633593e-08
tp3358
sI15
(F374.000000054
F268.9999999254
tp3359
sI16
(F378.18750083990625
F493.0624993587812
tp3360
sI17
(F414.79687585570315
F474.3906242551656
tp3361
sI18
(F444.750000853575
F448.249999156875
tp3362
sI19
(F468.0468758312812
F414.64062406590625
tp3363
sI20
(F484.68750078658127
F373.56249898425625
tp3364
sI21
(F494.6718757172344
F325.0156239139219
tp3365
sI22
(F498.0
F0.0
tp3366
sI23
(F498.000000621
F268.9999988569
tp3367
s(lp3368
(I4
I1
I5
tp3369
a(I3
I1
I4
tp3370
a(I0
I1
I3
tp3371
a(I6
I3
I4
tp3372
a(I8
I6
I7
tp3373
a(I10
I8
I11
tp3374
a(I17
I11
I16
tp3375
a(I12
I10
I17
tp3376
a(I19
I12
I17
tp3377
a(I21
I13
I19
tp3378
a(I21
I19
I20
tp3379
a(I23
I15
I21
tp3380
a(I14
I23
I22
tp3381
a(I15
I23
I14
tp3382
a(I0
I3
I2
tp3383
a(I4
I6
I7
tp3384
a(I7
I11
I9
tp3385
a(I7
I8
I11
tp3386
a(I11
I10
I17
tp3387
a(I17
I19
I18
tp3388
a(I12
I13
I19
tp3389
a(I13
I15
I21
tp3390
a(dp3391
g19
F750.0
sg20
F551.0
sg21
F57.0
sg22
F441.0
sg23
F0.0
sg24
F57.0
stp3392
sVk
p3393
((dp3394
I0
(F57.0000000001
F-5.60000000001e-09
tp3395
sI1
(F57.0000001502
F749.9999999888
tp3396
sI2
(F181.00000000000006
F-1.3682968197868238e-07
tp3397
sI3
(F181.0000001184
F294.999999928
tp3398
sI4
(F181.000000223
F221.99999982
tp3399
sI5
(F181.0000002253
F749.999999946
tp3400
sI6
(F297.0000001827
F259.9999997928
tp3401
sI7
(F340.0000000009
F-3.0510000000081e-07
tp3402
sI8
(F340.0000002505
F499.9999998305
tp3403
sI9
(F480.0000000008
F-3.8320000000064003e-07
tp3404
sI10
(F480.0000003006
F499.9999997126
tp3405
sI12
(F181.00000019956397
F640.4593638722514
tp3406
s(lp3407
(I12
I1
I5
tp3408
a(I0
I1
I3
tp3409
a(I0
I3
I4
tp3410
a(I6
I4
I3
tp3411
a(I6
I8
I10
tp3412
a(I7
I4
I6
tp3413
a(I0
I4
I2
tp3414
a(I8
I3
I6
tp3415
a(I1
I3
I12
tp3416
a(I9
I6
I7
tp3417
a(dp3418
g19
F750.0
sg20
F485.0
sg21
F57.0
sg22
F423.0
sg23
F0.0
sg24
F57.0
stp3419
sVj
p3420
((dp3421
I0
(F-2.0000000278
F-139.9999999994
tp3422
sI1
(F8.9999999759
F-242.0000000008
tp3423
sI2
(F31.1249999591625
F-137.1250000090375
tp3424
sI3
(F48.499999949
F-128.500000019
tp3425
sI4
(F54.0
F-242.0
tp3426
sI5
(F55.6249999476875
F-105.6250000273125
tp3427
sI6
(F57.9999999646
F-60.0000000342
tp3428
sI7
(F58.000000270710004
F575.9999999943
tp3429
sI8
(F58.0000001402
F699.9999999886
tp3430
sI9
(F58.0000003507
F499.9999999601
tp3431
sI10
(F109.99999972175
F-232.8750001308
tp3432
sI11
(F149.99999977505
F-205.5000001639
tp3433
sI12
(F173.999999837375
F-163.625000173
tp3434
sI13
(F181.999999901
F-111.0000001629
tp3435
sI14
(F182.00000032841
F576.0
tp3436
sI15
(F182.0000002103
F699.9999999457
tp3437
sI16
(F182.0000004008
F499.9999998552
tp3438
s(lp3439
(I6
I9
I16
tp3440
a(I12
I3
I5
tp3441
a(I4
I2
I3
tp3442
a(I10
I12
I11
tp3443
a(I4
I3
I10
tp3444
a(I1
I2
I4
tp3445
a(I0
I2
I1
tp3446
a(I15
I7
I14
tp3447
a(I8
I7
I15
tp3448
a(I13
I6
I5
tp3449
a(I5
I12
I13
tp3450
a(I16
I6
I13
tp3451
a(I3
I10
I12
tp3452
a(dp3453
g19
F942.0
sg20
F240.0
sg21
F-2.0
sg22
F184.0
sg23
F-242.0
sg24
F-2.0
stp3454
sVl
p3455
((dp3456
I0
(F58.0000000732
F120.9999999658
tp3457
sI1
(F58.0000005257
F749.9999999601
tp3458
sI2
(F66.0000000346875
F68.3749999675
tp3459
sI3
(F90.000000011
F26.4999999644
tp3460
sI4
(F130.0000000000375
F-0.8750000387
tp3461
sI5
(F182.0000001557
F171.9999998371
tp3462
sI6
(F182.0000006008
F749.9999998552
tp3463
sI7
(F184.500000127375
F126.3749998165
tp3464
sI8
(F185.9999999982
F-10.000000037
tp3465
sI9
(F192.00000011495
F103.4999997899
tp3466
sI10
(F209.50000011505
F94.8749997498
tp3467
sI11
(F230.9999999991
F-10.000000023
tp3468
sI12
(F242.0
F92.0
tp3469
s(lp3470
(I5
I1
I6
tp3471
a(I0
I1
I5
tp3472
a(I0
I5
I7
tp3473
a(I0
I7
I9
tp3474
a(I8
I9
I10
tp3475
a(I8
I10
I11
tp3476
a(I3
I9
I8
tp3477
a(I3
I8
I4
tp3478
a(I0
I9
I3
tp3479
a(I0
I3
I2
tp3480
a(I12
I10
I11
tp3481
a(dp3482
g19
F760.0
sg20
F263.0
sg21
F58.0
sg22
F184.0
sg23
F-10.0
sg24
F58.0
stp3483
sVo
p3484
((dp3485
I0
(F28.0000000282
F139.9999999946
tp3486
sI1
(F28.0000001077
F357.9999999919
tp3487
sI2
(F155.0000000537
F177.9999999538
tp3488
sI3
(F155.0000000642
F319.9999999692
tp3489
sI4
(F164.9999999991
F-10.0000000164
tp3490
sI5
(F165.0000002036
F507.9999999344
tp3491
sI6
(F222.0000000372
F91.9999999116
tp3492
sI7
(F222.0000000407
F405.9999999779
tp3493
sI8
(F340.0
F406.0
tp3494
sI9
(F340.0000000465
F91.9999998305
tp3495
sI10
(F397.0
F-10.0
tp3496
sI11
(F397.0000002545
F507.999999802
tp3497
sI12
(F407.0000001074
F177.9999997564
tp3498
sI13
(F407.0000002247
F319.9999997158
tp3499
sI14
(F534.0000000987
F139.9999996269
tp3500
sI15
(F534.0000002154
F357.9999996802
tp3501
s(lp3502
(I3
I1
I5
tp3503
a(I2
I1
I3
tp3504
a(I8
I7
I5
tp3505
a(I12
I13
I15
tp3506
a(I0
I1
I2
tp3507
a(I10
I12
I14
tp3508
a(I4
I2
I6
tp3509
a(I4
I6
I10
tp3510
a(I0
I2
I4
tp3511
a(I5
I3
I7
tp3512
a(I5
I8
I11
tp3513
a(I11
I8
I13
tp3514
a(I11
I13
I15
tp3515
a(I15
I12
I14
tp3516
a(I9
I6
I10
tp3517
a(I12
I9
I10
tp3518
a(dp3519
g19
F518.0
sg20
F562.0
sg21
F28.0
sg22
F506.0
sg23
F-10.0
sg24
F28.0
stp3520
sVn
p3521
((dp3522
I0
(F58.000000001
F-5.7000000000999996e-08
tp3523
sI1
(F58.0000005511
F499.9999999373
tp3524
sI2
(F174.0000006012
F499.9999997924
tp3525
sI3
(F176.0000006123
F469.9999997725
tp3526
sI4
(F182.0000000009
F-4.097278911634166e-08
tp3527
sI5
(F182.0000002912
F362.9999998552
tp3528
sI6
(F224.000000277375
F395.2499998439
tp3529
sI7
(F229.5000006993
F498.4999996801
tp3530
sI8
(F276.0000002442
F405.999999835
tp3531
sI9
(F286.0000007635
F507.9999995725
tp3532
sI10
(F320.8750001993125
F397.6249998400625
tp3533
sI11
(F335.921875808425
F504.265624464125
tp3534
sI12
(F351.5000001494
F372.4999998598
tp3535
sI13
(F369.1250000992625
F329.8749998895625
tp3536
sI14
(F375.00000000010004
F-1.6027210884658335e-08
tp3537
sI15
(F375.000000054
F268.9999999252
tp3538
sI16
(F379.18750083990625
F493.06249935708126
tp3539
sI17
(F415.79687585570315
F474.3906242533656
tp3540
sI18
(F445.750000853575
F448.249999154975
tp3541
sI19
(F469.0468758312812
F414.6406240639063
tp3542
sI20
(F485.68750078658127
F373.5624989821562
tp3543
sI21
(F495.6718757172344
F325.0156239117219
tp3544
sI22
(F499.0
F0.0
tp3545
sI23
(F499.000000621
F268.9999988546
tp3546
s(lp3547
(I3
I1
I2
tp3548
a(I5
I1
I3
tp3549
a(I0
I1
I5
tp3550
a(I6
I5
I3
tp3551
a(I8
I6
I7
tp3552
a(I10
I8
I9
tp3553
a(I10
I9
I16
tp3554
a(I12
I10
I17
tp3555
a(I19
I12
I17
tp3556
a(I21
I13
I19
tp3557
a(I21
I19
I20
tp3558
a(I23
I15
I21
tp3559
a(I14
I23
I22
tp3560
a(I15
I23
I14
tp3561
a(I0
I5
I4
tp3562
a(I3
I6
I7
tp3563
a(I7
I8
I9
tp3564
a(I9
I16
I11
tp3565
a(I16
I10
I17
tp3566
a(I17
I19
I18
tp3567
a(I12
I13
I19
tp3568
a(I13
I15
I21
tp3569
a(dp3570
g19
F508.0
sg20
F552.0
sg21
F58.0
sg22
F441.0
sg23
F0.0
sg24
F58.0
stp3571
sVq
p3572
((dp3573
I0
(F28.0000002
F248.9999999784
tp3574
sI1
(F32.062500138053124
F196.21874997825626
tp3575
sI2
(F32.06250027250312
F301.7812499720437
tp3576
sI3
(F44.250000089325
F147.87499997405
tp3577
sI4
(F44.250000351125
F350.12499995675
tp3578
sI5
(F64.56250005248438
F103.96874996821875
tp3579
sI6
(F64.56250043453437
F394.03124993008123
tp3580
sI7
(F93.0000000262
F64.4999999632
tp3581
sI8
(F93.0000005214
F433.4999998896
tp3582
sI9
(F128.62500000987188
F31.9062499617125
tp3583
sI10
(F128.62500060722186
F466.0937498340875
tp3584
sI11
(F155.0000001
F248.99999979500924
tp3585
sI12
(F163.375000093
F184.9999999188125
tp3586
sI13
(F163.3750000942
F312.9999999512875
tp3587
sI14
(F170.500000001925
F8.6249999661
tp3588
sI15
(F170.500000686525
F489.3749997627
tp3589
sI16
(F188.5000000728
F362.9999999625
tp3590
sI17
(F188.5000000816
F134.9999998875
tp3591
sI18
(F218.62499999956563
F-5.3437500217625
tp3592
sI19
(F218.62500075651562
F503.3437496735625
tp3593
sI20
(F228.375000039625
F395.2499999772625
tp3594
sI21
(F228.375000072625
F102.7499998408375
tp3595
sI22
(F273.0
F-10.0
tp3596
sI23
(F273.0000008144
F507.9999995648
tp3597
sI24
(F281.0
F406.0
tp3598
sI25
(F281.0000000744
F91.999999776
tp3599
sI26
(F308.1562500860625
F94.62499972355937
tp3600
sI27
(F308.1562507683125
F403.3749994164031
tp3601
sI28
(F331.6250001035
F102.499999669375
tp3602
sI29
(F331.6250007137
F395.499999404875
tp3603
sI30
(F335.2499999988
F-1.5000008022
tp3604
sI31
(F337.750000849575
F498.749999427525
tp3605
sI32
(F351.4062501282875
F115.62499961455312
tp3606
sI33
(F351.4062506517375
F382.3749994043094
tp3607
sI34
(F367.500000162
F133.9999995602
tp3608
sI35
(F367.500000584
F363.9999994136
tp3609
sI36
(F388.875000240175
F183.7499994957625
tp3610
sI37
(F388.875000472875
F314.2499994181875
tp3611
sI38
(F389.9999994698
F-242.0000008558
tp3612
sI39
(F390.0000000575
F23.9999991053
tp3613
sI40
(F396.00000035
F248.999999447
tp3614
sI41
(F396.0000008496
F470.999999289
tp3615
sI42
(F406.0000009519
F499.9999992305
tp3616
sI43
(F513.9999994939
F-242.0000010773
tp3617
sI44
(F514.000001002
F499.999998974
tp3618
s(lp3619
(I13
I2
I4
tp3620
a(I8
I4
I6
tp3621
a(I10
I15
I8
tp3622
a(I15
I16
I8
tp3623
a(I13
I4
I8
tp3624
a(I20
I15
I19
tp3625
a(I16
I15
I20
tp3626
a(I24
I23
I31
tp3627
a(I19
I24
I20
tp3628
a(I13
I8
I16
tp3629
a(I27
I24
I31
tp3630
a(I29
I27
I31
tp3631
a(I11
I2
I13
tp3632
a(I1
I2
I11
tp3633
a(I1
I11
I12
tp3634
a(I18
I25
I22
tp3635
a(I5
I12
I17
tp3636
a(I14
I17
I21
tp3637
a(I18
I21
I25
tp3638
a(I25
I30
I22
tp3639
a(I7
I17
I14
tp3640
a(I21
I18
I14
tp3641
a(I7
I14
I9
tp3642
a(I5
I17
I7
tp3643
a(I1
I12
I5
tp3644
a(I1
I5
I3
tp3645
a(I0
I2
I1
tp3646
a(I23
I19
I24
tp3647
a(I31
I29
I41
tp3648
a(I41
I33
I35
tp3649
a(I42
I41
I44
tp3650
a(I41
I29
I33
tp3651
a(I37
I41
I35
tp3652
a(I40
I41
I37
tp3653
a(I44
I41
I40
tp3654
a(I39
I40
I36
tp3655
a(I28
I30
I39
tp3656
a(I28
I26
I30
tp3657
a(I32
I28
I39
tp3658
a(I34
I32
I39
tp3659
a(I36
I34
I39
tp3660
a(I44
I40
I39
tp3661
a(I26
I25
I30
tp3662
a(I39
I38
I43
tp3663
a(I44
I39
I43
tp3664
a(dp3665
g19
F750.0
sg20
F572.0
sg21
F28.0
sg22
F486.0
sg23
F-242.0
sg24
F28.0
stp3666
sVp
p3667
((dp3668
I0
(F57.9999999036
F-242.0000000228
tp3669
sI1
(F58.0000002505
F499.9999999715
tp3670
sI2
(F166.0000003006
F499.999999901
tp3671
sI3
(F176.00000015
F248.999999895
tp3672
sI4
(F176.0000003304
F470.9999998775
tp3673
sI5
(F181.9999999277
F-242.0000000543
tp3674
sI6
(F182.000000005
F23.9999999638
tp3675
sI7
(F183.125000129325
F183.7499998725125
tp3676
sI8
(F183.125000157625
F314.2499999089375
tp3677
sI9
(F204.500000108
F133.9999998372
tp3678
sI10
(F204.500000146
F363.9999999186
tp3679
sI11
(F220.5937501049625
F115.62499980236562
tp3680
sI12
(F220.5937501150125
F382.3749999341219
tp3681
sI13
(F234.2500003998
F498.7499998134
tp3682
sI14
(F236.74999999995
F-1.500000023575
tp3683
sI15
(F240.3750000793
F395.499999952125
tp3684
sI16
(F240.3750001035
F102.499999760625
tp3685
sI17
(F263.8437500404375
F403.3749999737156
tp3686
sI18
(F263.8437501051875
F94.62499971087188
tp3687
sI19
(F291.0
F406.0
tp3688
sI20
(F291.0000001116
F91.999999652
tp3689
sI21
(F299.0
F-10.0
tp3690
sI22
(F299.0000004581
F507.9999997318
tp3691
sI23
(F343.625000134875
F102.7499995545875
tp3692
sI24
(F343.625000752875
F395.2499993490125
tp3693
sI25
(F353.374999989575
F-5.3437508457
tp3694
sI26
(F353.37500050434375
F503.343749647625
tp3695
sI27
(F383.5000001904
F134.9999994645
tp3696
sI28
(F383.5000006552
F362.9999993115
tp3697
sI29
(F401.5000000221375
F8.62499907885
tp3698
sI30
(F401.5000005394125
F489.37499955945
tp3699
sI31
(F408.625000279
F184.9999993885625
tp3700
sI32
(F408.6250005338
F312.9999993070375
tp3701
sI33
(F417.0000004
F248.9999993344
tp3702
sI34
(F443.37500007239373
F31.906249026775
tp3703
sI35
(F443.3750005605125
F466.09374946915
tp3704
sI36
(F479.00000013755
F64.4999989962
tp3705
sI37
(F479.00000056485
F433.4999993786
tp3706
sI38
(F507.4375002099375
F103.968748987125
tp3707
sI39
(F507.4375005530438
F394.0312492909875
tp3708
sI40
(F527.7500002828625
F147.874998999175
tp3709
sI41
(F527.7500005266875
F350.124999209875
tp3710
sI42
(F539.9375003549937
F196.2187490299125
tp3711
sI43
(F539.93750048445
F301.7812491377
tp3712
sI44
(F544.000000425
F248.9999990769
tp3713
s(lp3714
(I4
I1
I2
tp3715
a(I3
I1
I4
tp3716
a(I3
I4
I8
tp3717
a(I10
I8
I4
tp3718
a(I7
I1
I3
tp3719
a(I0
I1
I7
tp3720
a(I19
I17
I13
tp3721
a(I6
I7
I9
tp3722
a(I6
I9
I11
tp3723
a(I0
I7
I6
tp3724
a(I14
I6
I16
tp3725
a(I37
I28
I30
tp3726
a(I14
I16
I18
tp3727
a(I14
I18
I20
tp3728
a(I21
I14
I20
tp3729
a(I25
I20
I23
tp3730
a(I21
I20
I25
tp3731
a(I38
I27
I31
tp3732
a(I42
I43
I44
tp3733
a(I29
I23
I27
tp3734
a(I38
I31
I42
tp3735
a(I29
I25
I23
tp3736
a(I34
I29
I36
tp3737
a(I0
I6
I5
tp3738
a(I4
I10
I12
tp3739
a(I15
I4
I12
tp3740
a(I13
I4
I15
tp3741
a(I13
I15
I17
tp3742
a(I13
I19
I22
tp3743
a(I19
I24
I26
tp3744
a(I22
I19
I26
tp3745
a(I16
I11
I6
tp3746
a(I24
I28
I30
tp3747
a(I26
I24
I30
tp3748
a(I30
I37
I35
tp3749
a(I28
I39
I37
tp3750
a(I39
I32
I43
tp3751
a(I28
I32
I39
tp3752
a(I39
I43
I41
tp3753
a(I32
I33
I43
tp3754
a(I33
I31
I42
tp3755
a(I33
I42
I43
tp3756
a(I38
I40
I42
tp3757
a(I27
I36
I38
tp3758
a(I27
I29
I36
tp3759
a(dp3760
g19
F750.0
sg20
F572.0
sg21
F58.0
sg22
F486.0
sg23
F-242.0
sg24
F58.0
stp3761
sVs
p3762
((dp3763
I0
(F31.0000000112
F26.999999988
tp3764
sI1
(F36.000000805
F348.9999999195
tp3765
sI2
(F42.000000067
F132.9999999795
tp3766
sI3
(F45.0000006611
F299.4999999032
tp3767
sI4
(F46.8750009822
F408.2499998899
tp3768
sI5
(F62.56250000354375
F10.81249998153125
tp3769
sI6
(F65.50000055755
F264.49999986455
tp3770
sI7
(F71.875000069525
F114.874999957475
tp3771
sI8
(F79.5000011525
F459.99999980375
tp3772
sI9
(F99.500000481
F239.499999803
tp3773
sI10
(F101.25000000005
F-0.75000002005
tp3774
sI11
(F104.5312512532
F480.99999973081873
tp3775
sI12
(F111.50000006965
F98.49999992265
tp3776
sI13
(F136.1250013419
F495.9999996351625
tp3777
sI14
(F137.00000042465
F222.4999997416
tp3778
sI15
(F145.0000014965
F363.9999994096
tp3779
sI16
(F146.5000014721
F349.4999993889
tp3780
sI17
(F147.06249999933124
F-7.68750001460625
tp3781
sI18
(F150.8750015575
F388.3749994005
tp3782
sI19
(F152.00000145555
F337.49999935069997
tp3783
sI20
(F154.8750000703
F86.8749998769
tp3784
sI21
(F155.250000391275
F216.37499972235
tp3785
sI22
(F160.0000014454
F327.4999993004
tp3786
sI23
(F168.50000158535
F405.49999934675
tp3787
sI24
(F172.00000144
F318.9999992305
tp3788
sI25
(F174.2812514168
F504.9999995148125
tp3789
sI26
(F180.000000357
F208.9999996957
tp3790
sI27
(F185.5000014421
F312.4999991513
tp3791
sI28
(F195.125001583175
F415.624999262325
tp3792
sI29
(F196.0000000756
F82.9999998245
tp3793
sI30
(F200.0
F-10.0
tp3794
sI31
(F202.0000014429
F305.9999990553
tp3795
sI32
(F219.0000014496
F300.99999895359997
tp3796
sI33
(F219.0000014761
F507.9999993678
tp3797
sI34
(F220.8750003134
F194.8749996482
tp3798
sI35
(F228.000001554
F418.9999991601
tp3799
sI36
(F231.125000088
F86.999999769875
tp3800
sI37
(F238.50000145285
F295.49999883625
tp3801
sI38
(F245.9374999577703
F-7.70312654310625
tp3802
sI39
(F249.50000027225
F180.49999962725
tp3803
sI40
(F254.50000011
F98.99999972115
tp3804
sI41
(F259.000001455
F289.99999871
tp3805
sI42
(F266.25000149715
F414.87499904509997
tp3806
sI43
(F266.375000229075
F162.624999628475
tp3807
sI44
(F267.6250001413
F116.74999968005
tp3808
sI45
(F272.0000001807
F137.9999996477
tp3809
sI46
(F285.7500000011625
F-0.81250176545
tp3810
sI47
(F305.00000141225
F402.499998936
tp3811
sI48
(F309.500001494
F496.9999990745
tp3812
sI49
(F315.500001373175
F268.24999839605
tp3813
sI50
(F319.43750007119843
F10.671873057531249
tp3814
sI51
(F339.500001311975
F384.8749988491
tp3815
sI52
(F347.0000001665
F26.749997924
tp3816
sI53
(F348.3750015066
F484.99999892313747
tp3817
sI54
(F359.000001248
F238.9999981384
tp3818
sI55
(F365.0000012078
F364.9999987988
tp3819
sI56
(F368.43750028568905
F47.42187283211875
tp3820
sI57
(F375.187501172625
F220.24999801680625
tp3821
sI58
(F376.0000015104
F470.9999988
tp3822
sI59
(F383.7500004273875
F72.68749778005
tp3823
sI60
(F386.7500010692
F196.99999791695
tp3824
sI61
(F392.9375005902172
F102.54687276595625
tp3825
sI62
(F393.687500936375
F169.24999784021875
tp3826
sI63
(F396.0000007728
F136.999997788
tp3827
s(lp3828
(I15
I1
I4
tp3829
a(I16
I19
I1
tp3830
a(I18
I4
I8
tp3831
a(I18
I8
I23
tp3832
a(I19
I9
I6
tp3833
a(I16
I1
I15
tp3834
a(I19
I6
I1
tp3835
a(I14
I9
I22
tp3836
a(I9
I19
I22
tp3837
a(I0
I2
I7
tp3838
a(I14
I24
I27
tp3839
a(I21
I14
I27
tp3840
a(I21
I27
I31
tp3841
a(I26
I21
I31
tp3842
a(I26
I32
I37
tp3843
a(I34
I26
I37
tp3844
a(I49
I39
I41
tp3845
a(I34
I37
I41
tp3846
a(I0
I7
I12
tp3847
a(I39
I34
I41
tp3848
a(I43
I39
I49
tp3849
a(I60
I43
I49
tp3850
a(I10
I12
I20
tp3851
a(I61
I45
I62
tp3852
a(I17
I20
I29
tp3853
a(I52
I40
I44
tp3854
a(I30
I29
I36
tp3855
a(I59
I56
I52
tp3856
a(I61
I52
I44
tp3857
a(I52
I46
I40
tp3858
a(I50
I46
I52
tp3859
a(I46
I36
I40
tp3860
a(I38
I30
I46
tp3861
a(I30
I36
I46
tp3862
a(I17
I29
I30
tp3863
a(I10
I20
I17
tp3864
a(I0
I12
I10
tp3865
a(I0
I10
I5
tp3866
a(I13
I11
I8
tp3867
a(I1
I3
I6
tp3868
a(I23
I13
I8
tp3869
a(I4
I15
I18
tp3870
a(I28
I13
I23
tp3871
a(I13
I28
I33
tp3872
a(I25
I13
I33
tp3873
a(I22
I14
I24
tp3874
a(I33
I28
I35
tp3875
a(I33
I42
I48
tp3876
a(I33
I35
I42
tp3877
a(I32
I31
I26
tp3878
a(I48
I42
I47
tp3879
a(I48
I58
I53
tp3880
a(I47
I51
I58
tp3881
a(I48
I47
I58
tp3882
a(I58
I51
I55
tp3883
a(I49
I60
I54
tp3884
a(I54
I60
I57
tp3885
a(I43
I62
I60
tp3886
a(I43
I45
I62
tp3887
a(I45
I44
I61
tp3888
a(I62
I61
I63
tp3889
a(I52
I59
I61
tp3890
a(dp3891
g19
F518.0
sg20
F423.0
sg21
F31.0
sg22
F365.0
sg23
F-10.0
sg24
F31.0
stp3892
sVr
p3893
((dp3894
I0
(F58.0000000008
F-4.5600000000640004e-08
tp3895
sI1
(F58.0000004509
F499.9999999487
tp3896
sI2
(F174.000000501
F499.999999827
tp3897
sI3
(F177.0000004928
F446.9999998064
tp3898
sI4
(F182.0000000007
F-1.2670000000049e-07
tp3899
sI5
(F182.0000002052
F340.9999998914
tp3900
sI6
(F196.500000181
F360.99999990225
tp3901
sI7
(F207.437500569625
F473.687499752275
tp3902
sI8
(F218.0000001512
F376.9999999132
tp3903
sI9
(F239.750000641875
F492.749999689625
tp3904
sI10
(F244.25000011655
F387.499999927025
tp3905
sI11
(F273.0000000784
F390.9999999456
tp3906
sI12
(F273.9375007072625
F504.1874996178875
tp3907
sI13
(F310.0000007635
F507.9999995365
tp3908
sI14
(F319.0000000392
F390.9999999682
tp3909
sI15
(F343.0
F508.0
tp3910
s(lp3911
(I3
I1
I2
tp3912
a(I5
I1
I3
tp3913
a(I9
I3
I7
tp3914
a(I0
I1
I5
tp3915
a(I6
I5
I3
tp3916
a(I10
I3
I9
tp3917
a(I11
I10
I9
tp3918
a(I14
I11
I9
tp3919
a(I0
I5
I4
tp3920
a(I3
I8
I10
tp3921
a(I3
I6
I8
tp3922
a(I9
I15
I12
tp3923
a(I12
I15
I13
tp3924
a(I9
I14
I15
tp3925
a(dp3926
g19
F508.0
sg20
F342.0
sg21
F58.0
sg22
F285.0
sg23
F0.0
sg24
F58.0
stp3927
sVu
p3928
((dp3929
I0
(F53.0000002784
F230.9999999376
tp3930
sI1
(F53.0000006513
F499.9999999324
tp3931
sI2
(F56.31250019306719
F174.51562493915625
tp3932
sI3
(F66.2500001265625
F125.56249993475
tp3933
sI4
(F82.81250007662656
F84.14062492636874
tp3934
sI5
(F106.000000041
F50.249999916
tp3935
sI6
(F135.81250001742345
F23.89062490563125
tp3936
sI7
(F172.2500000036375
F5.06249989725
tp3937
sI8
(F177.000000348
F230.999999736
tp3938
sI9
(F177.0000007014
F499.9999997536
tp3939
sI10
(F182.8750002738
F170.124999709
tp3940
sI11
(F200.50000021845
F127.49999966085
tp3941
sI12
(F215.31249999738282
F-6.23437510715625
tp3942
sI13
(F231.125000186075
F102.374999585775
tp3943
sI14
(F264.9999999964
F-10.0000001056
tp3944
sI15
(F276.0000001805
F93.9999994775
tp3945
sI16
(F321.7500000003
F-9.622500000009001e-08
tp3946
sI17
(F328.500000211
F104.499999345
tp3947
sI18
(F370.0000002877
F135.9999992251
tp3948
sI19
(F370.0000011021999
F499.9999992132608
tp3949
sI20
(F376.0000000062
F29.999999925
tp3950
sI21
(F378.0000000001
F-6.480174165468947e-08
tp3951
sI22
(F494.0
F0.0
tp3952
sI23
(F494.0000011523
F499.9999988661
tp3953
s(lp3954
(I0
I1
I9
tp3955
a(I18
I19
I23
tp3956
a(I0
I9
I8
tp3957
a(I0
I8
I10
tp3958
a(I16
I15
I17
tp3959
a(I3
I10
I11
tp3960
a(I6
I11
I13
tp3961
a(I14
I12
I15
tp3962
a(I12
I13
I15
tp3963
a(I7
I6
I12
tp3964
a(I6
I13
I12
tp3965
a(I3
I11
I6
tp3966
a(I4
I6
I5
tp3967
a(I3
I6
I4
tp3968
a(I0
I10
I3
tp3969
a(I0
I3
I2
tp3970
a(I18
I20
I22
tp3971
a(I18
I17
I20
tp3972
a(I23
I18
I22
tp3973
a(I17
I16
I20
tp3974
a(I22
I20
I21
tp3975
a(I15
I14
I16
tp3976
a(dp3977
g19
F510.0
sg20
F552.0
sg21
F53.0
sg22
F441.0
sg23
F-10.0
sg24
F53.0
stp3978
sVt
p3979
((dp3980
I0
(F16.0000003192
F397.999999988
tp3981
sI1
(F27.0000004509
F499.9999999766
tp3982
sI2
(F87.0000000732
F120.9999999484
tp3983
sI3
(F87.0000002793
F397.9999998700308
tp3984
sI4
(F87.000000501
F499.999999914
tp3985
sI5
(F87.0000006721
F609.9999999054
tp3986
sI6
(F95.5000000359375
F70.87499995275
tp3987
sI7
(F121.0000000118
F28.499999952
tp3988
sI8
(F163.0000000001875
F-0.3750000486
tp3989
sI9
(F211.0000002941
F171.999999643
tp3990
sI10
(F211.0000006384
F397.999999664
tp3991
sI11
(F211.0000006513
F499.999999727
tp3992
sI12
(F211.0000007488
F622.999999748
tp3993
sI13
(F213.8750002304
F126.999999616825
tp3994
sI14
(F220.9999999982
F-10.000000044
tp3995
sI15
(F222.5000001995
F103.99999957915
tp3996
sI16
(F244.375000192
F94.99999951325
tp3997
sI17
(F287.0000001953
F91.9999993994
tp3998
sI18
(F309.9999999991
F-10.0000000309
tp3999
sI19
(F321.0
F92.0
tp4000
sI20
(F321.0000005985
F397.99999952
tp4001
sI21
(F321.0000007014
F499.999999552
tp4002
sI23
(F87.00000021807477
F315.71282048181484
tp4003
s(lp4004
(I3
I1
I4
tp4005
a(I11
I4
I5
tp4006
a(I3
I4
I11
tp4007
a(I10
I11
I21
tp4008
a(I0
I1
I3
tp4009
a(I10
I3
I11
tp4010
a(I23
I3
I10
tp4011
a(I23
I10
I9
tp4012
a(I2
I9
I13
tp4013
a(I7
I13
I15
tp4014
a(I8
I7
I14
tp4015
a(I7
I15
I14
tp4016
a(I2
I13
I7
tp4017
a(I23
I9
I2
tp4018
a(I5
I11
I12
tp4019
a(I21
I10
I20
tp4020
a(I17
I14
I18
tp4021
a(I17
I16
I14
tp4022
a(I19
I17
I18
tp4023
a(I16
I15
I14
tp4024
a(I7
I2
I6
tp4025
a(dp4026
g19
F633.0
sg20
F344.0
sg21
F16.0
sg22
F305.0
sg23
F-10.0
sg24
F16.0
stp4027
sVw
p4028
((dp4029
I0
(F10.0000003006
F499.9999999946
tp4030
sI1
(F131.00000035070002
F499.9999999955255
tp4031
sI2
(F156.0000000005
F-7.750000000025e-08
tp4032
sI3
(F217.0000001216
F150.99999982719999
tp4033
sI4
(F260.0000000004
F-1.0360000000016e-07
tp4034
sI5
(F311.0000004419
F489.999999721
tp4035
sI6
(F363.0000000981
F325.9999998914
tp4036
sI7
(F415.000000491
F489.999999586
tp4037
sI8
(F466.0000000002
F-9.300000000004e-08
tp4038
sI9
(F508.0000001672
F150.9999994423
tp4039
sI10
(F570.0000000001
F-5.6900000000010006e-08
tp4040
sI11
(F595.0000006012
F499.99999999907453
tp4041
sI12
(F716.0
F500.0
tp4042
sI14
(F432.7646809950765
F105.19139801816527
tp4043
sI15
(F302.0064452415238
F132.9524381042339
tp4044
sI16
(F282.30647166335604
F386.5201463195685
tp4045
sI17
(F443.4403672560958
F386.3302751664021
tp4046
sI18
(F420.70776291376563
F143.35212906724485
tp4047
sI19
(F144.84769057313886
F443.8041406602168
tp4048
sI20
(F580.960995634136
F443.68261244872815
tp4049
s(lp4050
(I8
I9
I10
tp4051
a(I14
I9
I8
tp4052
a(I2
I3
I4
tp4053
a(I0
I3
I2
tp4054
a(I7
I5
I17
tp4055
a(I12
I9
I10
tp4056
a(I15
I3
I6
tp4057
a(I15
I3
I4
tp4058
a(I16
I6
I17
tp4059
a(I16
I6
I3
tp4060
a(I17
I16
I5
tp4061
a(I17
I6
I9
tp4062
a(I18
I9
I14
tp4063
a(I18
I9
I6
tp4064
a(I19
I0
I1
tp4065
a(I19
I0
I3
tp4066
a(I20
I12
I11
tp4067
a(I20
I12
I9
tp4068
a(dp4069
g19
F500.0
sg20
F726.0
sg21
F10.0
sg22
F706.0
sg23
F0.0
sg24
F10.0
stp4070
sVv
p4071
((dp4072
I0
(F3.0000001503
F499.9999999994
tp4073
sI1
(F125.00000020040001
F499.9999999995494
tp4074
sI2
(F195.0000000002
F-3.880000000004e-08
tp4075
sI3
(F248.0000000775
F153.9999998765
tp4076
sI4
(F301.0000000001
F-3.0000000000009996e-08
tp4077
sI5
(F371.0000003006
F499.9999999998506
tp4078
sI6
(F493.0
F500.0
tp4079
s(lp4080
(I0
I1
I3
tp4081
a(I2
I3
I4
tp4082
a(I0
I3
I2
tp4083
a(I6
I5
I3
tp4084
a(I6
I3
I4
tp4085
a(dp4086
g19
F500.0
sg20
F496.0
sg21
F3.0
sg22
F490.0
sg23
F0.0
sg24
F3.0
stp4087
sVy
p4088
((dp4089
I0
(F1.0000002004
F500.0
tp4090
sI1
(F97.9999999518
F-242.0000000194
tp4091
sI2
(F139.0000002505
F500.0
tp4092
sI3
(F209.0000000102
F32.9999999376
tp4093
sI4
(F221.9999999759
F-242.0000000221
tp4094
sI5
(F267.0000001074
F177.9999998404
tp4095
sI6
(F397.0000003507
F500.0
tp4096
sI7
(F535.0
F500.0
tp4097
sI9
(F208.818622512481
F33.407227300693975
tp4098
sI10
(F208.8552739594291
F32.6414444066556
tp4099
s(lp4100
(I0
I2
I5
tp4101
a(I9
I5
I3
tp4102
a(I10
I3
I4
tp4103
a(I0
I5
I9
tp4104
a(I7
I6
I5
tp4105
a(I4
I5
I3
tp4106
a(I7
I5
I4
tp4107
a(I10
I1
I4
tp4108
a(dp4109
g19
F742.0
sg20
F537.0
sg21
F1.0
sg22
F534.0
sg23
F-242.0
sg24
F1.0
stp4110
sVx
p4111
((dp4112
I0
(F10.0000000004
F-3.6000000001600003e-09
tp4113
sI1
(F10.0000003006
F499.9999999946
tp4114
sI2
(F158.00000000029996
F-2.468789809026725e-09
tp4115
sI3
(F158.0000003507
F499.9999998901
tp4116
sI4
(F171.0000001255
F249.999999915
tp4117
sI5
(F242.0000000284
F140.9999999518
tp4118
sI6
(F249.000000288
F358.9999998016
tp4119
sI7
(F319.0000002761
F249.9999996502
tp4120
sI8
(F333.00000000009993
F-1.1312101911332754e-09
tp4121
sI9
(F333.0000004509
F499.9999997012
tp4122
sI10
(F481.0
F0.0
tp4123
sI11
(F481.000000501
F499.99999952
tp4124
s(lp4125
(I4
I1
I3
tp4126
a(I6
I4
I3
tp4127
a(I7
I4
I6
tp4128
a(I7
I6
I9
tp4129
a(I5
I4
I7
tp4130
a(I2
I4
I5
tp4131
a(I8
I5
I7
tp4132
a(I0
I4
I2
tp4133
a(I9
I7
I11
tp4134
a(I7
I8
I10
tp4135
a(dp4136
g19
F500.0
sg20
F491.0
sg21
F10.0
sg22
F471.0
sg23
F0.0
sg24
F10.0
stp4137
sVz
p4138
((dp4139
I0
(F21.0000000004
F-8.00000000016e-09
tp4140
sI1
(F31.0000002346
F389.999999982
tp4141
sI2
(F31.0000003507
F499.999999979
tp4142
sI3
(F231.0000000111
F109.999999977
tp4143
sI4
(F242.0000001955
F389.9999998795
tp4144
sI5
(F441.0000000003
F-1.3200000000009001e-07
tp4145
sI6
(F441.0000000222
F109.999999912
tp4146
sI7
(F452.0
F500.0
tp4147
sI9
(F324.15936629180726
F274.39888166678884
tp4148
sI10
(F148.65799269018274
F225.27881035716672
tp4149
s(lp4150
(I9
I4
I7
tp4151
a(I5
I3
I6
tp4152
a(I0
I3
I5
tp4153
a(I2
I1
I4
tp4154
a(I2
I4
I7
tp4155
a(I4
I10
I9
tp4156
a(I10
I3
I9
tp4157
a(I10
I3
I0
tp4158
a(dp4159
g19
F500.0
sg20
F472.0
sg21
F21.0
sg22
F431.0
sg23
F0.0
sg24
F21.0
stp4160
ssS'font_data'
p4161
(dp4162
S'fontname'
p4163
S'font'
p4164
sS'space_width'
p4165
I1215
sS'descent'
p4166
I-250
sS'line_spacing'
p4167
I1215
sS'line_gap'
p4168
I0
sS'ascent'
p4169
I965
ss.